PARTICIPANT_ID	TEST_SECTION_ID	SENTENCE	USER_INPUT	KEYSTROKE_ID	PRESS_TIME	RELEASE_TIME	LETTER	KEYCODE
140180	1523339	Opposition leaders have urged him to call off the visit.	opposition leaders have urged him to call off the visit	72411890	1473809806290	1473809806362	o	79
140180	1523339	Opposition leaders have urged him to call off the visit.	opposition leaders have urged him to call off the visit	72411891	1473809806518	1473809806578	p	80
140180	1523339	Opposition leaders have urged him to call off the visit.	opposition leaders have urged him to call off the visit	72411892	1473809806688	1473809806762	p	80
140180	1523339	Opposition leaders have urged him to call off the visit.	opposition leaders have urged him to call off the visit	72411893	1473809806934	1473809807014	o	79
140180	1523339	Opposition leaders have urged him to call off the visit.	opposition leaders have urged him to call off the visit	72411894	1473809807689	1473809807827	s	83
140180	1523339	Opposition leaders have urged him to call off the visit.	opposition leaders have urged him to call off the visit	72411975	1473809808172	1473809808250	i	73
140180	1523339	Opposition leaders have urged him to call off the visit.	opposition leaders have urged him to call off the visit	72411976	1473809808705	1473809808786	t	84
140180	1523339	Opposition leaders have urged him to call off the visit.	opposition leaders have urged him to call off the visit	72411978	1473809809216	1473809809287	i	73
140180	1523339	Opposition leaders have urged him to call off the visit.	opposition leaders have urged him to call off the visit	72411980	1473809811445	1473809811514	o	79
140180	1523339	Opposition leaders have urged him to call off the visit.	opposition leaders have urged him to call off the visit	72411982	1473809811857	1473809811916	n	78
140180	1523339	Opposition leaders have urged him to call off the visit.	opposition leaders have urged him to call off the visit	72412079	1473809812027	1473809812114	 	32
140180	1523339	Opposition leaders have urged him to call off the visit.	opposition leaders have urged him to call off the visit	72412080	1473809813909	1473809813990	l	76
140180	1523339	Opposition leaders have urged him to call off the visit.	opposition leaders have urged him to call off the visit	72412081	1473809814458	1473809814574	e	69
140180	1523339	Opposition leaders have urged him to call off the visit.	opposition leaders have urged him to call off the visit	72412082	1473809814652	1473809814804	a	65
140180	1523339	Opposition leaders have urged him to call off the visit.	opposition leaders have urged him to call off the visit	72412083	1473809814835	1473809814927	d	68
140180	1523339	Opposition leaders have urged him to call off the visit.	opposition leaders have urged him to call off the visit	72412192	1473809815101	1473809815179	e	69
140180	1523339	Opposition leaders have urged him to call off the visit.	opposition leaders have urged him to call off the visit	72412194	1473809815902	1473809815982	r	82
140180	1523339	Opposition leaders have urged him to call off the visit.	opposition leaders have urged him to call off the visit	72412196	1473809816688	1473809816831	s	83
140180	1523339	Opposition leaders have urged him to call off the visit.	opposition leaders have urged him to call off the visit	72412198	1473809817318	1473809817402	 	32
140180	1523339	Opposition leaders have urged him to call off the visit.	opposition leaders have urged him to call off the visit	72412202	1473809818708	1473809818793	h	72
140180	1523339	Opposition leaders have urged him to call off the visit.	opposition leaders have urged him to call off the visit	72412286	1473809819641	1473809819775	a	65
140180	1523339	Opposition leaders have urged him to call off the visit.	opposition leaders have urged him to call off the visit	72412288	1473809819885	1473809819964	v	86
140180	1523339	Opposition leaders have urged him to call off the visit.	opposition leaders have urged him to call off the visit	72412293	1473809820338	1473809820478	e	69
140180	1523339	Opposition leaders have urged him to call off the visit.	opposition leaders have urged him to call off the visit	72412296	1473809820603	1473809820683	 	32
140180	1523339	Opposition leaders have urged him to call off the visit.	opposition leaders have urged him to call off the visit	72412298	1473809821815	1473809821904	u	85
140180	1523339	Opposition leaders have urged him to call off the visit.	opposition leaders have urged him to call off the visit	72412340	1473809822373	1473809822440	r	82
140180	1523339	Opposition leaders have urged him to call off the visit.	opposition leaders have urged him to call off the visit	72412342	1473809822705	1473809822838	g	71
140180	1523339	Opposition leaders have urged him to call off the visit.	opposition leaders have urged him to call off the visit	72412345	1473809823012	1473809823154	e	69
140180	1523339	Opposition leaders have urged him to call off the visit.	opposition leaders have urged him to call off the visit	72412348	1473809823170	1473809823259	d	68
140180	1523339	Opposition leaders have urged him to call off the visit.	opposition leaders have urged him to call off the visit	72412350	1473809823493	1473809823610	 	32
140180	1523339	Opposition leaders have urged him to call off the visit.	opposition leaders have urged him to call off the visit	72412426	1473809825007	1473809825146	h	72
140180	1523339	Opposition leaders have urged him to call off the visit.	opposition leaders have urged him to call off the visit	72412429	1473809825886	1473809825970	i	73
140180	1523339	Opposition leaders have urged him to call off the visit.	opposition leaders have urged him to call off the visit	72412432	1473809826522	1473809826606	m	77
140180	1523339	Opposition leaders have urged him to call off the visit.	opposition leaders have urged him to call off the visit	72412436	1473809826809	1473809826876	 	32
140180	1523339	Opposition leaders have urged him to call off the visit.	opposition leaders have urged him to call off the visit	72412441	1473809827864	1473809827962	t	84
140180	1523339	Opposition leaders have urged him to call off the visit.	opposition leaders have urged him to call off the visit	72412505	1473809828451	1473809828531	o	79
140180	1523339	Opposition leaders have urged him to call off the visit.	opposition leaders have urged him to call off the visit	72412507	1473809828765	1473809828849	 	32
140180	1523339	Opposition leaders have urged him to call off the visit.	opposition leaders have urged him to call off the visit	72412510	1473809829478	1473809829546	c	67
140180	1523339	Opposition leaders have urged him to call off the visit.	opposition leaders have urged him to call off the visit	72412513	1473809829687	1473809829878	a	65
140180	1523339	Opposition leaders have urged him to call off the visit.	opposition leaders have urged him to call off the visit	72412518	1473809830241	1473809830291	l	76
140180	1523339	Opposition leaders have urged him to call off the visit.	opposition leaders have urged him to call off the visit	72412592	1473809830386	1473809830456	l	76
140180	1523339	Opposition leaders have urged him to call off the visit.	opposition leaders have urged him to call off the visit	72412594	1473809830674	1473809830741	 	32
140180	1523339	Opposition leaders have urged him to call off the visit.	opposition leaders have urged him to call off the visit	72412596	1473809832013	1473809832080	o	79
140180	1523339	Opposition leaders have urged him to call off the visit.	opposition leaders have urged him to call off the visit	72412598	1473809832501	1473809832565	f	70
140180	1523339	Opposition leaders have urged him to call off the visit.	opposition leaders have urged him to call off the visit	72412599	1473809832659	1473809832731	f	70
140180	1523339	Opposition leaders have urged him to call off the visit.	opposition leaders have urged him to call off the visit	72412633	1473809832888	1473809832981	 	32
140180	1523339	Opposition leaders have urged him to call off the visit.	opposition leaders have urged him to call off the visit	72412637	1473809833294	1473809833414	t	84
140180	1523339	Opposition leaders have urged him to call off the visit.	opposition leaders have urged him to call off the visit	72412641	1473809833524	1473809833665	h	72
140180	1523339	Opposition leaders have urged him to call off the visit.	opposition leaders have urged him to call off the visit	72412644	1473809833743	1473809833885	e	69
140180	1523339	Opposition leaders have urged him to call off the visit.	opposition leaders have urged him to call off the visit	72412646	1473809833963	1473809834037	 	32
140180	1523339	Opposition leaders have urged him to call off the visit.	opposition leaders have urged him to call off the visit	72412754	1473809836064	1473809836145	v	86
140180	1523339	Opposition leaders have urged him to call off the visit.	opposition leaders have urged him to call off the visit	72412758	1473809836666	1473809836763	i	73
140180	1523339	Opposition leaders have urged him to call off the visit.	opposition leaders have urged him to call off the visit	72412764	1473809837169	1473809837312	s	83
140180	1523339	Opposition leaders have urged him to call off the visit.	opposition leaders have urged him to call off the visit	72412769	1473809837863	1473809837953	i	73
140180	1523339	Opposition leaders have urged him to call off the visit.	opposition leaders have urged him to call off the visit	72412775	1473809838202	1473809838285	t	84
140180	1523522	This is the neatest toy I have had.	This is the neatest toy I have had.	72431934	1473810228556	1473810228984	SHIFT	16
140180	1523522	This is the neatest toy I have had.	This is the neatest toy I have had.	72431933	1473810228759	1473810228860	T	84
140180	1523522	This is the neatest toy I have had.	This is the neatest toy I have had.	72431936	1473810229062	1473810229160	h	72
140180	1523522	This is the neatest toy I have had.	This is the neatest toy I have had.	72431941	1473810229550	1473810229663	i	73
140180	1523522	This is the neatest toy I have had.	This is the neatest toy I have had.	72431945	1473810230039	1473810230178	s	83
140180	1523522	This is the neatest toy I have had.	This is the neatest toy I have had.	72431947	1473810230193	1473810230375	 	32
140180	1523522	This is the neatest toy I have had.	This is the neatest toy I have had.	72432075	1473810230627	1473810230749	i	73
140180	1523522	This is the neatest toy I have had.	This is the neatest toy I have had.	72432078	1473810230843	1473810231013	s	83
140180	1523522	This is the neatest toy I have had.	This is the neatest toy I have had.	72432081	1473810231372	1473810231485	 	32
140180	1523522	This is the neatest toy I have had.	This is the neatest toy I have had.	72432085	1473810232317	1473810232376	t	84
140180	1523522	This is the neatest toy I have had.	This is the neatest toy I have had.	72432087	1473810232547	1473810232673	h	72
140180	1523522	This is the neatest toy I have had.	This is the neatest toy I have had.	72432238	1473810232940	1473810233104	e	69
140180	1523522	This is the neatest toy I have had.	This is the neatest toy I have had.	72432241	1473810233167	1473810233267	 	32
140180	1523522	This is the neatest toy I have had.	This is the neatest toy I have had.	72432242	1473810234642	1473810234765	n	78
140180	1523522	This is the neatest toy I have had.	This is the neatest toy I have had.	72432243	1473810235425	1473810235552	e	69
140180	1523522	This is the neatest toy I have had.	This is the neatest toy I have had.	72432245	1473810235646	1473810235799	a	65
140180	1523522	This is the neatest toy I have had.	This is the neatest toy I have had.	72432379	1473810236792	1473810236891	t	84
140180	1523522	This is the neatest toy I have had.	This is the neatest toy I have had.	72432383	1473810237125	1473810237195	e	69
140180	1523522	This is the neatest toy I have had.	This is the neatest toy I have had.	72432386	1473810237507	1473810237657	s	83
140180	1523522	This is the neatest toy I have had.	This is the neatest toy I have had.	72432389	1473810237688	1473810237763	t	84
140180	1523522	This is the neatest toy I have had.	This is the neatest toy I have had.	72432393	1473810238279	1473810238395	 	32
140180	1523522	This is the neatest toy I have had.	This is the neatest toy I have had.	72432554	1473810238933	1473810239018	t	84
140180	1523522	This is the neatest toy I have had.	This is the neatest toy I have had.	72432556	1473810239553	1473810239638	o	79
140180	1523522	This is the neatest toy I have had.	This is the neatest toy I have had.	72432558	1473810239966	1473810240040	y	89
140180	1523522	This is the neatest toy I have had.	This is the neatest toy I have had.	72432562	1473810240258	1473810240354	 	32
140180	1523522	This is the neatest toy I have had.	This is the neatest toy I have had.	72432566	1473810241158	1473810241794	SHIFT	16
140180	1523522	This is the neatest toy I have had.	This is the neatest toy I have had.	72432648	1473810241706	1473810241794	I	73
140180	1523522	This is the neatest toy I have had.	This is the neatest toy I have had.	72432651	1473810242060	1473810242161	 	32
140180	1523522	This is the neatest toy I have had.	This is the neatest toy I have had.	72432654	1473810242379	1473810242465	h	72
140180	1523522	This is the neatest toy I have had.	This is the neatest toy I have had.	72432656	1473810242652	1473810242810	a	65
140180	1523522	This is the neatest toy I have had.	This is the neatest toy I have had.	72432658	1473810243122	1473810243186	v	86
140180	1523522	This is the neatest toy I have had.	This is the neatest toy I have had.	72432660	1473810243623	1473810243781	e	69
140180	1523522	This is the neatest toy I have had.	This is the neatest toy I have had.	72432819	1473810243908	1473810243988	 	32
140180	1523522	This is the neatest toy I have had.	This is the neatest toy I have had.	72432822	1473810245544	1473810245659	h	72
140180	1523522	This is the neatest toy I have had.	This is the neatest toy I have had.	72432824	1473810245721	1473810245888	a	65
140180	1523522	This is the neatest toy I have had.	This is the neatest toy I have had.	72432826	1473810247479	1473810247599	d	68
140180	1523522	This is the neatest toy I have had.	This is the neatest toy I have had.	72432828	1473810248104	1473810248172	.	190
140180	1523781	Don't use him this week.	Dont use him this week	72433465	1473810252869	1473810254334	SHIFT	16
140180	1523781	Don't use him this week.	Dont use him this week	72433462	1473810254109	1473810254241	D	68
140180	1523781	Don't use him this week.	Dont use him this week	72433467	1473810256128	1473810256219	o	79
140180	1523781	Don't use him this week.	Dont use him this week	72433469	1473810257004	1473810257073	n	78
140180	1523781	Don't use him this week.	Dont use him this week	72433473	1473810260219	1473810260650	SHIFT	16
140180	1523781	Don't use him this week.	Dont use him this week	72433471	1473810260519	1473810260634	<	188
140180	1523781	Don't use him this week.	Dont use him this week	72433475	1473810261697	1473810261778	BKSP	8
140180	1523781	Don't use him this week.	Dont use him this week	72433477	1473810266950	1473810267030	t	84
140180	1523781	Don't use him this week.	Dont use him this week	72433720	1473810271748	1473810271893	 	32
140180	1523781	Don't use him this week.	Dont use him this week	72433723	1473810273167	1473810273254	u	85
140180	1523781	Don't use him this week.	Dont use him this week	72433725	1473810273504	1473810273683	s	83
140180	1523781	Don't use him this week.	Dont use him this week	72433727	1473810273698	1473810273788	e	69
140180	1523781	Don't use him this week.	Dont use him this week	72433731	1473810273991	1473810274104	 	32
140180	1523781	Don't use him this week.	Dont use him this week	72433816	1473810275773	1473810275849	h	72
140180	1523781	Don't use him this week.	Dont use him this week	72433820	1473810276145	1473810276247	i	73
140180	1523781	Don't use him this week.	Dont use him this week	72433822	1473810276543	1473810276602	m	77
140180	1523781	Don't use him this week.	Dont use him this week	72433824	1473810276696	1473810276784	 	32
140180	1523781	Don't use him this week.	Dont use him this week	72433826	1473810277127	1473810277205	t	84
140180	1523781	Don't use him this week.	Dont use him this week	72433885	1473810277345	1473810277437	h	72
140180	1523781	Don't use him this week.	Dont use him this week	72433890	1473810277988	1473810278088	i	73
140180	1523781	Don't use him this week.	Dont use him this week	72433894	1473810278150	1473810278318	s	83
140180	1523781	Don't use him this week.	Dont use him this week	72433901	1473810278365	1473810278489	 	32
140180	1523781	Don't use him this week.	Dont use him this week	72433907	1473810279055	1473810279129	w	87
140180	1523781	Don't use him this week.	Dont use him this week	72433968	1473810279396	1473810279463	e	69
140180	1523781	Don't use him this week.	Dont use him this week	72433971	1473810279526	1473810279613	e	69
140180	1523781	Don't use him this week.	Dont use him this week	72433974	1473810280715	1473810280800	k	75
140180	1523806	We don't recommend McNair this week as a result.	we dont recommend McNair this week as aresult .	72434174	1473810284205	1473810284328	w	87
140180	1523806	We don't recommend McNair this week as a result.	we dont recommend McNair this week as aresult .	72434177	1473810284359	1473810284449	e	69
140180	1523806	We don't recommend McNair this week as a result.	we dont recommend McNair this week as aresult .	72434180	1473810284698	1473810284798	 	32
140180	1523806	We don't recommend McNair this week as a result.	we dont recommend McNair this week as aresult .	72434183	1473810286087	1473810286250	d	68
140180	1523806	We don't recommend McNair this week as a result.	we dont recommend McNair this week as aresult .	72434184	1473810286438	1473810286507	o	79
140180	1523806	We don't recommend McNair this week as a result.	we dont recommend McNair this week as aresult .	72434880	1473810288819	1473810288947	n	78
140180	1523806	We don't recommend McNair this week as a result.	we dont recommend McNair this week as aresult .	72434885	1473810291794	1473810292142	CTRL	17
140180	1523806	We don't recommend McNair this week as a result.	we dont recommend McNair this week as aresult .	72434888	1473810292048	1473810292157		77
140180	1523806	We don't recommend McNair this week as a result.	we dont recommend McNair this week as aresult .	72435485	1473810296422	1473810321660	SHIFT	16
140180	1523806	We don't recommend McNair this week as a result.	we dont recommend McNair this week as aresult .	72434893	1473810306193	1473810306269	t	84
140180	1523806	We don't recommend McNair this week as a result.	we dont recommend McNair this week as aresult .	72434898	1473810306550	1473810306653	 	32
140180	1523806	We don't recommend McNair this week as a result.	we dont recommend McNair this week as aresult .	72434904	1473810307012	1473810307076	r	82
140180	1523806	We don't recommend McNair this week as a result.	we dont recommend McNair this week as aresult .	72434985	1473810307203	1473810307289	e	69
140180	1523806	We don't recommend McNair this week as a result.	we dont recommend McNair this week as aresult .	72434987	1473810307461	1473810307557	c	67
140180	1523806	We don't recommend McNair this week as a result.	we dont recommend McNair this week as aresult .	72434990	1473810307962	1473810308044	o	79
140180	1523806	We don't recommend McNair this week as a result.	we dont recommend McNair this week as aresult .	72434994	1473810308542	1473810308628	m	77
140180	1523806	We don't recommend McNair this week as a result.	we dont recommend McNair this week as aresult .	72434996	1473810309033	1473810309176	e	69
140180	1523806	We don't recommend McNair this week as a result.	we dont recommend McNair this week as aresult .	72435190	1473810309712	1473810309799	n	78
140180	1523806	We don't recommend McNair this week as a result.	we dont recommend McNair this week as aresult .	72435193	1473810310018	1473810310164	d	68
140180	1523806	We don't recommend McNair this week as a result.	we dont recommend McNair this week as aresult .	72435195	1473810314617	1473810314687	BKSP	8
140180	1523806	We don't recommend McNair this week as a result.	we dont recommend McNair this week as aresult .	72435197	1473810314781	1473810314854	BKSP	8
140180	1523806	We don't recommend McNair this week as a result.	we dont recommend McNair this week as aresult .	72435199	1473810314932	1473810315019	BKSP	8
140180	1523806	We don't recommend McNair this week as a result.	we dont recommend McNair this week as aresult .	72435201	1473810315129	1473810315224	BKSP	8
140180	1523806	We don't recommend McNair this week as a result.	we dont recommend McNair this week as aresult .	72435203	1473810315349	1473810315485	BKSP	8
140180	1523806	We don't recommend McNair this week as a result.	we dont recommend McNair this week as aresult .	72435204	1473810316318	1473810316410	o	79
140180	1523806	We don't recommend McNair this week as a result.	we dont recommend McNair this week as aresult .	72435205	1473810317397	1473810317449	m	77
140180	1523806	We don't recommend McNair this week as a result.	we dont recommend McNair this week as aresult .	72435206	1473810317543	1473810317599	m	77
140180	1523806	We don't recommend McNair this week as a result.	we dont recommend McNair this week as aresult .	72435264	1473810318243	1473810318318	e	69
140180	1523806	We don't recommend McNair this week as a result.	we dont recommend McNair this week as aresult .	72435265	1473810318855	1473810318920	n	78
140180	1523806	We don't recommend McNair this week as a result.	we dont recommend McNair this week as aresult .	72435266	1473810319154	1473810319253	d	68
140180	1523806	We don't recommend McNair this week as a result.	we dont recommend McNair this week as aresult .	72435267	1473810319689	1473810319773	 	32
140180	1523806	We don't recommend McNair this week as a result.	we dont recommend McNair this week as aresult .	72435270	1473810321504	1473810321580	M	77
140180	1523806	We don't recommend McNair this week as a result.	we dont recommend McNair this week as aresult .	72435488	1473810323437	1473810323568	c	67
140180	1523806	We don't recommend McNair this week as a result.	we dont recommend McNair this week as aresult .	72435491	1473810325345	1473810325742	SHIFT	16
140180	1523806	We don't recommend McNair this week as a result.	we dont recommend McNair this week as aresult .	72435489	1473810325598	1473810325695	N	78
140180	1523806	We don't recommend McNair this week as a result.	we dont recommend McNair this week as aresult .	72435493	1473810326201	1473810326376	a	65
140180	1523806	We don't recommend McNair this week as a result.	we dont recommend McNair this week as aresult .	72435495	1473810327083	1473810327216	i	73
140180	1523806	We don't recommend McNair this week as a result.	we dont recommend McNair this week as aresult .	72435497	1473810329699	1473810329796	r	82
140180	1523806	We don't recommend McNair this week as a result.	we dont recommend McNair this week as aresult .	72435573	1473810330410	1473810330482	 	32
140180	1523806	We don't recommend McNair this week as a result.	we dont recommend McNair this week as aresult .	72435575	1473810331741	1473810331854	t	84
140180	1523806	We don't recommend McNair this week as a result.	we dont recommend McNair this week as aresult .	72435577	1473810331979	1473810332090	h	72
140180	1523806	We don't recommend McNair this week as a result.	we dont recommend McNair this week as aresult .	72435581	1473810332527	1473810332623	i	73
140180	1523806	We don't recommend McNair this week as a result.	we dont recommend McNair this week as aresult .	72435583	1473810332779	1473810332936	s	83
140180	1523806	We don't recommend McNair this week as a result.	we dont recommend McNair this week as aresult .	72435684	1473810333314	1473810333394	 	32
140180	1523806	We don't recommend McNair this week as a result.	we dont recommend McNair this week as aresult .	72435685	1473810334256	1473810334347	w	87
140180	1523806	We don't recommend McNair this week as a result.	we dont recommend McNair this week as aresult .	72435686	1473810334867	1473810334918	e	69
140180	1523806	We don't recommend McNair this week as a result.	we dont recommend McNair this week as aresult .	72435687	1473810334996	1473810335084	e	69
140180	1523806	We don't recommend McNair this week as a result.	we dont recommend McNair this week as aresult .	72435688	1473810336248	1473810336338	k	75
140180	1523806	We don't recommend McNair this week as a result.	we dont recommend McNair this week as aresult .	72435748	1473810336495	1473810336605	 	32
140180	1523806	We don't recommend McNair this week as a result.	we dont recommend McNair this week as aresult .	72435750	1473810337249	1473810337405	a	65
140180	1523806	We don't recommend McNair this week as a result.	we dont recommend McNair this week as aresult .	72435753	1473810337420	1473810337525	s	83
140180	1523806	We don't recommend McNair this week as a result.	we dont recommend McNair this week as aresult .	72435758	1473810337712	1473810337827	 	32
140180	1523806	We don't recommend McNair this week as a result.	we dont recommend McNair this week as aresult .	72435763	1473810337983	1473810338157	a	65
140180	1523806	We don't recommend McNair this week as a result.	we dont recommend McNair this week as aresult .	72435811	1473810338361	1473810338432	r	82
140180	1523806	We don't recommend McNair this week as a result.	we dont recommend McNair this week as aresult .	72435813	1473810338525	1473810338630	e	69
140180	1523806	We don't recommend McNair this week as a result.	we dont recommend McNair this week as aresult .	72435815	1473810338864	1473810339028	s	83
140180	1523806	We don't recommend McNair this week as a result.	we dont recommend McNair this week as aresult .	72435817	1473810339355	1473810339435	u	85
140180	1523806	We don't recommend McNair this week as a result.	we dont recommend McNair this week as aresult .	72435819	1473810340111	1473810340205	l	76
140180	1523806	We don't recommend McNair this week as a result.	we dont recommend McNair this week as aresult .	72435907	1473810340662	1473810340741	t	84
140180	1523806	We don't recommend McNair this week as a result.	we dont recommend McNair this week as aresult .	72435909	1473810342329	1473810342399	 	32
140180	1523806	We don't recommend McNair this week as a result.	we dont recommend McNair this week as aresult .	72435912	1473810342555	1473810342631	.	190
140180	1523850	The Mercedes drivers ae likely to break the track records.	The Mercedes drivers ae likely to break the track records.	72436126	1473810346843	1473810347213	SHIFT	16
140180	1523850	The Mercedes drivers ae likely to break the track records.	The Mercedes drivers ae likely to break the track records.	72436124	1473810347115	1473810347213	T	84
140180	1523850	The Mercedes drivers ae likely to break the track records.	The Mercedes drivers ae likely to break the track records.	72436130	1473810347463	1473810347549	h	72
140180	1523850	The Mercedes drivers ae likely to break the track records.	The Mercedes drivers ae likely to break the track records.	72436133	1473810347970	1473810348130	e	69
140180	1523850	The Mercedes drivers ae likely to break the track records.	The Mercedes drivers ae likely to break the track records.	72436136	1473810348473	1473810348586	 	32
140180	1523850	The Mercedes drivers ae likely to break the track records.	The Mercedes drivers ae likely to break the track records.	72436139	1473810349511	1473810349925	SHIFT	16
140180	1523850	The Mercedes drivers ae likely to break the track records.	The Mercedes drivers ae likely to break the track records.	72436209	1473810349845	1473810349941	M	77
140180	1523850	The Mercedes drivers ae likely to break the track records.	The Mercedes drivers ae likely to break the track records.	72436213	1473810350476	1473810350564	e	69
140180	1523850	The Mercedes drivers ae likely to break the track records.	The Mercedes drivers ae likely to break the track records.	72436216	1473810350658	1473810350746	r	82
140180	1523850	The Mercedes drivers ae likely to break the track records.	The Mercedes drivers ae likely to break the track records.	72436219	1473810351042	1473810351099	c	67
140180	1523850	The Mercedes drivers ae likely to break the track records.	The Mercedes drivers ae likely to break the track records.	72436221	1473810352026	1473810352168	e	69
140180	1523850	The Mercedes drivers ae likely to break the track records.	The Mercedes drivers ae likely to break the track records.	72436222	1473810352968	1473810353056	d	68
140180	1523850	The Mercedes drivers ae likely to break the track records.	The Mercedes drivers ae likely to break the track records.	72436290	1473810353229	1473810353324	e	69
140180	1523850	The Mercedes drivers ae likely to break the track records.	The Mercedes drivers ae likely to break the track records.	72436291	1473810353433	1473810353570	s	83
140180	1523850	The Mercedes drivers ae likely to break the track records.	The Mercedes drivers ae likely to break the track records.	72436292	1473810353694	1473810353837	 	32
140180	1523850	The Mercedes drivers ae likely to break the track records.	The Mercedes drivers ae likely to break the track records.	72436294	1473810354908	1473810355090	d	68
140180	1523850	The Mercedes drivers ae likely to break the track records.	The Mercedes drivers ae likely to break the track records.	72436296	1473810355184	1473810355265	r	82
140180	1523850	The Mercedes drivers ae likely to break the track records.	The Mercedes drivers ae likely to break the track records.	72436397	1473810355769	1473810355866	i	73
140180	1523850	The Mercedes drivers ae likely to break the track records.	The Mercedes drivers ae likely to break the track records.	72436401	1473810356480	1473810356570	v	86
140180	1523850	The Mercedes drivers ae likely to break the track records.	The Mercedes drivers ae likely to break the track records.	72436404	1473810357105	1473810357267	e	69
140180	1523850	The Mercedes drivers ae likely to break the track records.	The Mercedes drivers ae likely to break the track records.	72436409	1473810357345	1473810357456	r	82
140180	1523850	The Mercedes drivers ae likely to break the track records.	The Mercedes drivers ae likely to break the track records.	72436411	1473810358697	1473810358872	s	83
140180	1523850	The Mercedes drivers ae likely to break the track records.	The Mercedes drivers ae likely to break the track records.	72436552	1473810359362	1473810359526	 	32
140180	1523850	The Mercedes drivers ae likely to break the track records.	The Mercedes drivers ae likely to break the track records.	72436558	1473810361210	1473810361368	a	65
140180	1523850	The Mercedes drivers ae likely to break the track records.	The Mercedes drivers ae likely to break the track records.	72436563	1473810361430	1473810361511	e	69
140180	1523850	The Mercedes drivers ae likely to break the track records.	The Mercedes drivers ae likely to break the track records.	72436567	1473810361888	1473810362022	 	32
140180	1523850	The Mercedes drivers ae likely to break the track records.	The Mercedes drivers ae likely to break the track records.	72436569	1473810362728	1473810362795	l	76
140180	1523850	The Mercedes drivers ae likely to break the track records.	The Mercedes drivers ae likely to break the track records.	72436661	1473810362985	1473810363062	i	73
140180	1523850	The Mercedes drivers ae likely to break the track records.	The Mercedes drivers ae likely to break the track records.	72436663	1473810363218	1473810363302	k	75
140180	1523850	The Mercedes drivers ae likely to break the track records.	The Mercedes drivers ae likely to break the track records.	72436665	1473810364367	1473810364543	e	69
140180	1523850	The Mercedes drivers ae likely to break the track records.	The Mercedes drivers ae likely to break the track records.	72436668	1473810365468	1473810365586	l	76
140180	1523850	The Mercedes drivers ae likely to break the track records.	The Mercedes drivers ae likely to break the track records.	72436674	1473810366497	1473810366577	y	89
140180	1523850	The Mercedes drivers ae likely to break the track records.	The Mercedes drivers ae likely to break the track records.	72436806	1473810367111	1473810367211	 	32
140180	1523850	The Mercedes drivers ae likely to break the track records.	The Mercedes drivers ae likely to break the track records.	72436808	1473810368027	1473810368100	t	84
140180	1523850	The Mercedes drivers ae likely to break the track records.	The Mercedes drivers ae likely to break the track records.	72436810	1473810368994	1473810369085	o	79
140180	1523850	The Mercedes drivers ae likely to break the track records.	The Mercedes drivers ae likely to break the track records.	72436814	1473810369590	1473810369767	 	32
140180	1523850	The Mercedes drivers ae likely to break the track records.	The Mercedes drivers ae likely to break the track records.	72436820	1473810370157	1473810370256	b	66
140180	1523850	The Mercedes drivers ae likely to break the track records.	The Mercedes drivers ae likely to break the track records.	72436933	1473810370600	1473810370692	r	82
140180	1523850	The Mercedes drivers ae likely to break the track records.	The Mercedes drivers ae likely to break the track records.	72436935	1473810370819	1473810370909	e	69
140180	1523850	The Mercedes drivers ae likely to break the track records.	The Mercedes drivers ae likely to break the track records.	72436937	1473810371096	1473810371240	a	65
140180	1523850	The Mercedes drivers ae likely to break the track records.	The Mercedes drivers ae likely to break the track records.	72436939	1473810371995	1473810372080	k	75
140180	1523850	The Mercedes drivers ae likely to break the track records.	The Mercedes drivers ae likely to break the track records.	72436942	1473810372617	1473810372731	 	32
140180	1523850	The Mercedes drivers ae likely to break the track records.	The Mercedes drivers ae likely to break the track records.	72437003	1473810373787	1473810373871	t	84
140180	1523850	The Mercedes drivers ae likely to break the track records.	The Mercedes drivers ae likely to break the track records.	72437004	1473810374011	1473810374137	h	72
140180	1523850	The Mercedes drivers ae likely to break the track records.	The Mercedes drivers ae likely to break the track records.	72437006	1473810374246	1473810374371	e	69
140180	1523850	The Mercedes drivers ae likely to break the track records.	The Mercedes drivers ae likely to break the track records.	72437008	1473810374418	1473810374522	 	32
140180	1523850	The Mercedes drivers ae likely to break the track records.	The Mercedes drivers ae likely to break the track records.	72437011	1473810374743	1473810374842	t	84
140180	1523850	The Mercedes drivers ae likely to break the track records.	The Mercedes drivers ae likely to break the track records.	72437093	1473810374937	1473810375012	r	82
140180	1523850	The Mercedes drivers ae likely to break the track records.	The Mercedes drivers ae likely to break the track records.	72437095	1473810375246	1473810375398	a	65
140180	1523850	The Mercedes drivers ae likely to break the track records.	The Mercedes drivers ae likely to break the track records.	72437102	1473810376538	1473810376617	c	67
140180	1523850	The Mercedes drivers ae likely to break the track records.	The Mercedes drivers ae likely to break the track records.	72437109	1473810377230	1473810377304	k	75
140180	1523850	The Mercedes drivers ae likely to break the track records.	The Mercedes drivers ae likely to break the track records.	72437113	1473810377694	1473810377818	 	32
140180	1523850	The Mercedes drivers ae likely to break the track records.	The Mercedes drivers ae likely to break the track records.	72437230	1473810378338	1473810378407	r	82
140180	1523850	The Mercedes drivers ae likely to break the track records.	The Mercedes drivers ae likely to break the track records.	72437231	1473810378516	1473810378608	e	69
140180	1523850	The Mercedes drivers ae likely to break the track records.	The Mercedes drivers ae likely to break the track records.	72437232	1473810378920	1473810379008	c	67
140180	1523850	The Mercedes drivers ae likely to break the track records.	The Mercedes drivers ae likely to break the track records.	72437233	1473810379559	1473810379628	o	79
140180	1523850	The Mercedes drivers ae likely to break the track records.	The Mercedes drivers ae likely to break the track records.	72437234	1473810380150	1473810380216	r	82
140180	1523850	The Mercedes drivers ae likely to break the track records.	The Mercedes drivers ae likely to break the track records.	72437411	1473810380374	1473810380511	d	68
140180	1523850	The Mercedes drivers ae likely to break the track records.	The Mercedes drivers ae likely to break the track records.	72437419	1473810380667	1473810380843	s	83
140180	1523850	The Mercedes drivers ae likely to break the track records.	The Mercedes drivers ae likely to break the track records.	72437423	1473810382023	1473810382241	SHIFT	16
140180	1523850	The Mercedes drivers ae likely to break the track records.	The Mercedes drivers ae likely to break the track records.	72437427	1473810382226	1473810382371	>	190
140180	1523850	The Mercedes drivers ae likely to break the track records.	The Mercedes drivers ae likely to break the track records.	72437433	1473810383517	1473810383578	BKSP	8
140180	1523850	The Mercedes drivers ae likely to break the track records.	The Mercedes drivers ae likely to break the track records.	72437438	1473810384046	1473810384113	.	190
140180	1523885	This is very sensitive.	This is very sensitive.	72437653	1473810387471	1473810387813	SHIFT	16
140180	1523885	This is very sensitive.	This is very sensitive.	72437656	1473810387772	1473810387860	T	84
140180	1523885	This is very sensitive.	This is very sensitive.	72437660	1473810388016	1473810388111	h	72
140180	1523885	This is very sensitive.	This is very sensitive.	72437664	1473810388455	1473810388561	i	73
140180	1523885	This is very sensitive.	This is very sensitive.	72437667	1473810388748	1473810388908	s	83
140180	1523885	This is very sensitive.	This is very sensitive.	72437669	1473810388940	1473810389063	 	32
140180	1523885	This is very sensitive.	This is very sensitive.	72437862	1473810390275	1473810390386	i	73
140180	1523885	This is very sensitive.	This is very sensitive.	72437868	1473810390573	1473810390748	s	83
140180	1523885	This is very sensitive.	This is very sensitive.	72437874	1473810390936	1473810391039	 	32
140180	1523885	This is very sensitive.	This is very sensitive.	72437879	1473810392578	1473810392678	v	86
140180	1523885	This is very sensitive.	This is very sensitive.	72437883	1473810393053	1473810393158	e	69
140180	1523885	This is very sensitive.	This is very sensitive.	72437979	1473810393269	1473810393349	r	82
140180	1523885	This is very sensitive.	This is very sensitive.	72437984	1473810393665	1473810393744	y	89
140180	1523885	This is very sensitive.	This is very sensitive.	72437988	1473810394119	1473810394265	 	32
140180	1523885	This is very sensitive.	This is very sensitive.	72437992	1473810394930	1473810395100	s	83
140180	1523885	This is very sensitive.	This is very sensitive.	72437996	1473810395443	1473810395619	e	69
140180	1523885	This is very sensitive.	This is very sensitive.	72438109	1473810396045	1473810396160	n	78
140180	1523885	This is very sensitive.	This is very sensitive.	72438112	1473810396819	1473810397008	s	83
140180	1523885	This is very sensitive.	This is very sensitive.	72438115	1473810397589	1473810397699	i	73
140180	1523885	This is very sensitive.	This is very sensitive.	72438117	1473810397995	1473810398068	t	84
140180	1523885	This is very sensitive.	This is very sensitive.	72438118	1473810398573	1473810398654	i	73
140180	1523885	This is very sensitive.	This is very sensitive.	72438266	1473810399502	1473810399590	v	86
140180	1523885	This is very sensitive.	This is very sensitive.	72438271	1473810399824	1473810399971	e	69
140180	1523885	This is very sensitive.	This is very sensitive.	72438276	1473810401322	1473810401368	.	190
140180	1523903	Weather is bad here.	weather is bad here.	72438560	1473810408011	1473810408091	w	87
140180	1523903	Weather is bad here.	weather is bad here.	72438562	1473810408262	1473810408342	e	69
140180	1523903	Weather is bad here.	weather is bad here.	72438564	1473810408483	1473810408655	a	65
140180	1523903	Weather is bad here.	weather is bad here.	72438566	1473810408999	1473810409079	t	84
140180	1523903	Weather is bad here.	weather is bad here.	72438567	1473810409235	1473810409331	h	72
140180	1523903	Weather is bad here.	weather is bad here.	72438647	1473810409627	1473810409699	e	69
140180	1523903	Weather is bad here.	weather is bad here.	72438650	1473810409808	1473810409881	r	82
140180	1523903	Weather is bad here.	weather is bad here.	72438653	1473810410147	1473810410232	 	32
140180	1523903	Weather is bad here.	weather is bad here.	72438656	1473810411002	1473810411070	i	73
140180	1523903	Weather is bad here.	weather is bad here.	72438660	1473810411335	1473810411467	s	83
140180	1523903	Weather is bad here.	weather is bad here.	72438690	1473810411498	1473810411587	 	32
140180	1523903	Weather is bad here.	weather is bad here.	72438692	1473810411946	1473810412008	b	66
140180	1523903	Weather is bad here.	weather is bad here.	72438695	1473810412166	1473810412309	a	65
140180	1523903	Weather is bad here.	weather is bad here.	72438699	1473810412372	1473810412442	d	68
140180	1523903	Weather is bad here.	weather is bad here.	72438703	1473810412614	1473810412694	 	32
140180	1523903	Weather is bad here.	weather is bad here.	72438859	1473810413147	1473810413213	h	72
140180	1523903	Weather is bad here.	weather is bad here.	72438862	1473810413967	1473810414032	e	69
140180	1523903	Weather is bad here.	weather is bad here.	72438866	1473810414142	1473810414231	r	82
140180	1523903	Weather is bad here.	weather is bad here.	72438871	1473810414324	1473810414415	e	69
140180	1523903	Weather is bad here.	weather is bad here.	72438877	1473810416586	1473810416659	.	190
140180	1523916	Call me anytime for information.	call me anytime for information.	72439133	1473810420410	1473810420490	c	67
140180	1523916	Call me anytime for information.	call me anytime for information.	72439136	1473810420599	1473810420800	a	65
140180	1523916	Call me anytime for information.	call me anytime for information.	72439138	1473810421143	1473810421196	k	75
140180	1523916	Call me anytime for information.	call me anytime for information.	72439139	1473810421952	1473810422022	BKSP	8
140180	1523916	Call me anytime for information.	call me anytime for information.	72439140	1473810422381	1473810422433	l	76
140180	1523916	Call me anytime for information.	call me anytime for information.	72439141	1473810422526	1473810422585	l	76
140180	1523916	Call me anytime for information.	call me anytime for information.	72439182	1473810422757	1473810422837	 	32
140180	1523916	Call me anytime for information.	call me anytime for information.	72439184	1473810422995	1473810423068	m	77
140180	1523916	Call me anytime for information.	call me anytime for information.	72439187	1473810423443	1473810423581	e	69
140180	1523916	Call me anytime for information.	call me anytime for information.	72439191	1473810423646	1473810423721	 	32
140180	1523916	Call me anytime for information.	call me anytime for information.	72439194	1473810424099	1473810424249	a	65
140180	1523916	Call me anytime for information.	call me anytime for information.	72439232	1473810424265	1473810424370	n	78
140180	1523916	Call me anytime for information.	call me anytime for information.	72439236	1473810424655	1473810424740	y	89
140180	1523916	Call me anytime for information.	call me anytime for information.	72439240	1473810424942	1473810425024	t	84
140180	1523916	Call me anytime for information.	call me anytime for information.	72439247	1473810425530	1473810425596	i	73
140180	1523916	Call me anytime for information.	call me anytime for information.	72439254	1473810425814	1473810425896	m	77
140180	1523916	Call me anytime for information.	call me anytime for information.	72439389	1473810426132	1473810426260	e	69
140180	1523916	Call me anytime for information.	call me anytime for information.	72439392	1473810426904	1473810426970	 	32
140180	1523916	Call me anytime for information.	call me anytime for information.	72439396	1473810427477	1473810427551	f	70
140180	1523916	Call me anytime for information.	call me anytime for information.	72439401	1473810428135	1473810428236	o	79
140180	1523916	Call me anytime for information.	call me anytime for information.	72439404	1473810428756	1473810428918	r	82
140180	1523916	Call me anytime for information.	call me anytime for information.	72439484	1473810428967	1473810429057	 	32
140180	1523916	Call me anytime for information.	call me anytime for information.	72439490	1473810429525	1473810429610	i	73
140180	1523916	Call me anytime for information.	call me anytime for information.	72439497	1473810429828	1473810429911	n	78
140180	1523916	Call me anytime for information.	call me anytime for information.	72439503	1473810430587	1473810430665	f	70
140180	1523916	Call me anytime for information.	call me anytime for information.	72439509	1473810431086	1473810431213	o	79
140180	1523916	Call me anytime for information.	call me anytime for information.	72439598	1473810431418	1473810431595	r	82
140180	1523916	Call me anytime for information.	call me anytime for information.	72439602	1473810431829	1473810431919	m	77
140180	1523916	Call me anytime for information.	call me anytime for information.	72439607	1473810432438	1473810432599	a	65
140180	1523916	Call me anytime for information.	call me anytime for information.	72439612	1473810432989	1473810433089	t	84
140180	1523916	Call me anytime for information.	call me anytime for information.	72439616	1473810433511	1473810433592	i	73
140180	1523916	Call me anytime for information.	call me anytime for information.	72439818	1473810433703	1473810433808	o	79
140180	1523916	Call me anytime for information.	call me anytime for information.	72439819	1473810434485	1473810434548	n	78
140180	1523916	Call me anytime for information.	call me anytime for information.	72439823	1473810435569	1473810436001	SHIFT	16
140180	1523916	Call me anytime for information.	call me anytime for information.	72439820	1473810435900	1473810436001	>	190
140180	1523916	Call me anytime for information.	call me anytime for information.	72439828	1473810437072	1473810437140	BKSP	8
140180	1523916	Call me anytime for information.	call me anytime for information.	72439832	1473810437739	1473810437810	.	190
140180	1523934	Surely we can cover this from within Virgo's team?	Surely we can cover this from within Vigos team	72440249	1473810445611	1473810446449	SHIFT	16
140180	1523934	Surely we can cover this from within Virgo's team?	Surely we can cover this from within Vigos team	72440246	1473810446224	1473810446324	S	83
140180	1523934	Surely we can cover this from within Virgo's team?	Surely we can cover this from within Vigos team	72440252	1473810446922	1473810447012	u	85
140180	1523934	Surely we can cover this from within Virgo's team?	Surely we can cover this from within Vigos team	72440255	1473810447433	1473810447499	r	82
140180	1523934	Surely we can cover this from within Virgo's team?	Surely we can cover this from within Vigos team	72440259	1473810447702	1473810447845	e	69
140180	1523934	Surely we can cover this from within Virgo's team?	Surely we can cover this from within Vigos team	72440262	1473810448266	1473810448319	l	76
140180	1523934	Surely we can cover this from within Virgo's team?	Surely we can cover this from within Vigos team	72440425	1473810449371	1473810449423	y	89
140180	1523934	Surely we can cover this from within Virgo's team?	Surely we can cover this from within Vigos team	72440428	1473810449829	1473810449939	 	32
140180	1523934	Surely we can cover this from within Virgo's team?	Surely we can cover this from within Vigos team	72440431	1473810451074	1473810451224	w	87
140180	1523934	Surely we can cover this from within Virgo's team?	Surely we can cover this from within Vigos team	72440437	1473810451270	1473810451362	e	69
140180	1523934	Surely we can cover this from within Virgo's team?	Surely we can cover this from within Vigos team	72440441	1473810451612	1473810451698	 	32
140180	1523934	Surely we can cover this from within Virgo's team?	Surely we can cover this from within Vigos team	72440631	1473810452436	1473810452502	c	67
140180	1523934	Surely we can cover this from within Virgo's team?	Surely we can cover this from within Vigos team	72440634	1473810453288	1473810453528	a	65
140180	1523934	Surely we can cover this from within Virgo's team?	Surely we can cover this from within Vigos team	72440638	1473810453668	1473810453725	n	78
140180	1523934	Surely we can cover this from within Virgo's team?	Surely we can cover this from within Vigos team	72440644	1473810453866	1473810453940	 	32
140180	1523934	Surely we can cover this from within Virgo's team?	Surely we can cover this from within Vigos team	72440648	1473810454993	1473810455046	c	67
140180	1523934	Surely we can cover this from within Virgo's team?	Surely we can cover this from within Vigos team	72440739	1473810455692	1473810455748	o	79
140180	1523934	Surely we can cover this from within Virgo's team?	Surely we can cover this from within Vigos team	72440740	1473810456752	1473810456820	v	86
140180	1523934	Surely we can cover this from within Virgo's team?	Surely we can cover this from within Vigos team	72440742	1473810457022	1473810457150	e	69
140180	1523934	Surely we can cover this from within Virgo's team?	Surely we can cover this from within Vigos team	72440743	1473810457165	1473810457237	r	82
140180	1523934	Surely we can cover this from within Virgo's team?	Surely we can cover this from within Vigos team	72440745	1473810457440	1473810457538	 	32
140180	1523934	Surely we can cover this from within Virgo's team?	Surely we can cover this from within Vigos team	72440839	1473810458431	1473810458509	t	84
140180	1523934	Surely we can cover this from within Virgo's team?	Surely we can cover this from within Vigos team	72440843	1473810458649	1473810458726	h	72
140180	1523934	Surely we can cover this from within Virgo's team?	Surely we can cover this from within Vigos team	72440847	1473810459070	1473810459160	i	73
140180	1523934	Surely we can cover this from within Virgo's team?	Surely we can cover this from within Vigos team	72440851	1473810459425	1473810459561	s	83
140180	1523934	Surely we can cover this from within Virgo's team?	Surely we can cover this from within Vigos team	72440855	1473810459592	1473810459679	 	32
140180	1523934	Surely we can cover this from within Virgo's team?	Surely we can cover this from within Vigos team	72440983	1473810460340	1473810460406	f	70
140180	1523934	Surely we can cover this from within Virgo's team?	Surely we can cover this from within Vigos team	72440989	1473810460923	1473810461065	r	82
140180	1523934	Surely we can cover this from within Virgo's team?	Surely we can cover this from within Vigos team	72440992	1473810461127	1473810461234	o	79
140180	1523934	Surely we can cover this from within Virgo's team?	Surely we can cover this from within Vigos team	72440996	1473810461739	1473810461867	m	77
140180	1523934	Surely we can cover this from within Virgo's team?	Surely we can cover this from within Vigos team	72440999	1473810462242	1473810462354	 	32
140180	1523934	Surely we can cover this from within Virgo's team?	Surely we can cover this from within Vigos team	72441079	1473810463472	1473810463623	w	87
140180	1523934	Surely we can cover this from within Virgo's team?	Surely we can cover this from within Vigos team	72441081	1473810463733	1473810463799	i	73
140180	1523934	Surely we can cover this from within Virgo's team?	Surely we can cover this from within Vigos team	72441083	1473810464236	1473810464317	t	84
140180	1523934	Surely we can cover this from within Virgo's team?	Surely we can cover this from within Vigos team	72441085	1473810464473	1473810464565	h	72
140180	1523934	Surely we can cover this from within Virgo's team?	Surely we can cover this from within Vigos team	72441087	1473810464736	1473810464816	i	73
140180	1523934	Surely we can cover this from within Virgo's team?	Surely we can cover this from within Vigos team	72441361	1473810465068	1473810465151	n	78
140180	1523934	Surely we can cover this from within Virgo's team?	Surely we can cover this from within Vigos team	72441365	1473810465276	1473810465337	 	32
140180	1523934	Surely we can cover this from within Virgo's team?	Surely we can cover this from within Vigos team	72441373	1473810467089	1473810467892	SHIFT	16
140180	1523934	Surely we can cover this from within Virgo's team?	Surely we can cover this from within Vigos team	72441369	1473810467758	1473810467829	V	86
140180	1523934	Surely we can cover this from within Virgo's team?	Surely we can cover this from within Vigos team	72441378	1473810469102	1473810469200	i	73
140180	1523934	Surely we can cover this from within Virgo's team?	Surely we can cover this from within Vigos team	72441383	1473810470474	1473810470541	g	71
140180	1523934	Surely we can cover this from within Virgo's team?	Surely we can cover this from within Vigos team	72441527	1473810471248	1473810471312	o	79
140180	1523934	Surely we can cover this from within Virgo's team?	Surely we can cover this from within Vigos team	72441530	1473810472632	1473810472778	s	83
140180	1523934	Surely we can cover this from within Virgo's team?	Surely we can cover this from within Vigos team	72441533	1473810472825	1473810472901	 	32
140180	1523934	Surely we can cover this from within Virgo's team?	Surely we can cover this from within Vigos team	72441535	1473810473337	1473810473435	t	84
140180	1523934	Surely we can cover this from within Virgo's team?	Surely we can cover this from within Vigos team	72441538	1473810473607	1473810473703	e	69
140180	1523934	Surely we can cover this from within Virgo's team?	Surely we can cover this from within Vigos team	72441635	1473810473783	1473810473979	a	65
140180	1523934	Surely we can cover this from within Virgo's team?	Surely we can cover this from within Vigos team	72441638	1473810474531	1473810474592	m	77
140180	1523970	Thanks for all you are doing.	THanks for all you are doing.	72441980	1473810479745	1473810480671	SHIFT	16
140180	1523970	Thanks for all you are doing.	THanks for all you are doing.	72441978	1473810480437	1473810480515	T	84
140180	1523970	Thanks for all you are doing.	THanks for all you are doing.	72441983	1473810480671	1473810480748	H	72
140180	1523970	Thanks for all you are doing.	THanks for all you are doing.	72441986	1473810481045	1473810481319	a	65
140180	1523970	Thanks for all you are doing.	THanks for all you are doing.	72441990	1473810481366	1473810481434	n	78
140180	1523970	Thanks for all you are doing.	THanks for all you are doing.	72441994	1473810483087	1473810483158	k	75
140180	1523970	Thanks for all you are doing.	THanks for all you are doing.	72442236	1473810483928	1473810484088	s	83
140180	1523970	Thanks for all you are doing.	THanks for all you are doing.	72442242	1473810484827	1473810484899	 	32
140180	1523970	Thanks for all you are doing.	THanks for all you are doing.	72442249	1473810486282	1473810486338	f	70
140180	1523970	Thanks for all you are doing.	THanks for all you are doing.	72442254	1473810486890	1473810486989	o	79
140180	1523970	Thanks for all you are doing.	THanks for all you are doing.	72442259	1473810487161	1473810487303	r	82
140180	1523970	Thanks for all you are doing.	THanks for all you are doing.	72442324	1473810487303	1473810487390	 	32
140180	1523970	Thanks for all you are doing.	THanks for all you are doing.	72442328	1473810487874	1473810488021	a	65
140180	1523970	Thanks for all you are doing.	THanks for all you are doing.	72442335	1473810488271	1473810488330	l	76
140180	1523970	Thanks for all you are doing.	THanks for all you are doing.	72442340	1473810488408	1473810488479	l	76
140180	1523970	Thanks for all you are doing.	THanks for all you are doing.	72442349	1473810488620	1473810488714	 	32
140180	1523970	Thanks for all you are doing.	THanks for all you are doing.	72442492	1473810489607	1473810489669	y	89
140180	1523970	Thanks for all you are doing.	THanks for all you are doing.	72442496	1473810490043	1473810490119	o	79
140180	1523970	Thanks for all you are doing.	THanks for all you are doing.	72442497	1473810490337	1473810490420	u	85
140180	1523970	Thanks for all you are doing.	THanks for all you are doing.	72442499	1473810490592	1473810490687	 	32
140180	1523970	Thanks for all you are doing.	THanks for all you are doing.	72442500	1473810490999	1473810491183	a	65
140180	1523970	Thanks for all you are doing.	THanks for all you are doing.	72442564	1473810491231	1473810491323	r	82
140180	1523970	Thanks for all you are doing.	THanks for all you are doing.	72442566	1473810491401	1473810491507	e	69
140180	1523970	Thanks for all you are doing.	THanks for all you are doing.	72442570	1473810491679	1473810491790	 	32
140180	1523970	Thanks for all you are doing.	THanks for all you are doing.	72442574	1473810491946	1473810492120	d	68
140180	1523970	Thanks for all you are doing.	THanks for all you are doing.	72442578	1473810492562	1473810492630	o	79
140180	1523970	Thanks for all you are doing.	THanks for all you are doing.	72442679	1473810492724	1473810492811	i	73
140180	1523970	Thanks for all you are doing.	THanks for all you are doing.	72442681	1473810493014	1473810493113	n	78
140180	1523970	Thanks for all you are doing.	THanks for all you are doing.	72442685	1473810493742	1473810493817	g	71
140180	1523970	Thanks for all you are doing.	THanks for all you are doing.	72442689	1473810495356	1473810495430	.	190
140180	1523995	And if he's not, then he doesn't play.	And if hes not , then he doesnt play.	72442957	1473810499285	1473810499494	SHIFT	16
140180	1523995	And if he's not, then he doesn't play.	And if hes not , then he doesnt play.	72442960	1473810499472	1473810499556	A	65
140180	1523995	And if he's not, then he doesn't play.	And if hes not , then he doesnt play.	72442965	1473810499946	1473810500047	n	78
140180	1523995	And if he's not, then he doesn't play.	And if hes not , then he doesnt play.	72442971	1473810500405	1473810500494	d	68
140180	1523995	And if he's not, then he doesn't play.	And if hes not , then he doesnt play.	72442981	1473810500837	1473810500927	 	32
140180	1523995	And if he's not, then he doesn't play.	And if hes not , then he doesnt play.	72442986	1473810501526	1473810501583	i	73
140180	1523995	And if he's not, then he doesn't play.	And if hes not , then he doesnt play.	72443227	1473810501943	1473810502001	f	70
140180	1523995	And if he's not, then he doesn't play.	And if hes not , then he doesnt play.	72443231	1473810502141	1473810502233	 	32
140180	1523995	And if he's not, then he doesn't play.	And if hes not , then he doesnt play.	72443235	1473810502701	1473810502800	h	72
140180	1523995	And if he's not, then he doesn't play.	And if hes not , then he doesnt play.	72443239	1473810502925	1473810503067	e	69
140180	1523995	And if he's not, then he doesn't play.	And if hes not , then he doesnt play.	72443242	1473810506448	1473810506736	SHIFT	16
140180	1523995	And if he's not, then he doesn't play.	And if hes not , then he doesnt play.	72444331	1473810506651	1473810506785	M	77
140180	1523995	And if he's not, then he doesn't play.	And if hes not , then he doesnt play.	72444333	1473810507852	1473810507925	BKSP	8
140180	1523995	And if he's not, then he doesn't play.	And if hes not , then he doesnt play.	72444336	1473810512377	1473810513113	ALT	18
140180	1523995	And if he's not, then he doesn't play.	And if hes not , then he doesnt play.	72444340	1473810516875	1473810517007	m	77
140180	1523995	And if he's not, then he doesn't play.	And if hes not , then he doesnt play.	72444343	1473810517966	1473810518064	BKSP	8
140180	1523995	And if he's not, then he doesn't play.	And if hes not , then he doesnt play.	72444346	1473810521196	1473810521244	,	188
140180	1523995	And if he's not, then he doesn't play.	And if hes not , then he doesnt play.	72444349	1473810522738	1473810522832	BKSP	8
140180	1523995	And if he's not, then he doesn't play.	And if hes not , then he doesnt play.	72444351	1473810530163	1473810530338	s	83
140180	1523995	And if he's not, then he doesn't play.	And if hes not , then he doesnt play.	72444354	1473810530572	1473810530662	 	32
140180	1523995	And if he's not, then he doesn't play.	And if hes not , then he doesnt play.	72444357	1473810530912	1473810530997	n	78
140180	1523995	And if he's not, then he doesn't play.	And if hes not , then he doesnt play.	72444501	1473810531405	1473810531485	o	79
140180	1523995	And if he's not, then he doesn't play.	And if hes not , then he doesnt play.	72444506	1473810531875	1473810531938	t	84
140180	1523995	And if he's not, then he doesn't play.	And if hes not , then he doesnt play.	72444510	1473810533070	1473810533188	 	32
140180	1523995	And if he's not, then he doesn't play.	And if hes not , then he doesnt play.	72444514	1473810533562	1473810533611	,	188
140180	1523995	And if he's not, then he doesn't play.	And if hes not , then he doesnt play.	72444516	1473810533768	1473810533844	 	32
140180	1523995	And if he's not, then he doesn't play.	And if hes not , then he doesnt play.	72444597	1473810535149	1473810535232	t	84
140180	1523995	And if he's not, then he doesn't play.	And if hes not , then he doesnt play.	72444601	1473810535373	1473810535466	h	72
140180	1523995	And if he's not, then he doesn't play.	And if hes not , then he doesnt play.	72444604	1473810535809	1473810535998	e	69
140180	1523995	And if he's not, then he doesn't play.	And if hes not , then he doesnt play.	72444607	1473810536108	1473810536188	n	78
140180	1523995	And if he's not, then he doesn't play.	And if hes not , then he doesnt play.	72444612	1473810536297	1473810536388	 	32
140180	1523995	And if he's not, then he doesn't play.	And if hes not , then he doesnt play.	72444791	1473810537754	1473810537826	h	72
140180	1523995	And if he's not, then he doesn't play.	And if hes not , then he doesnt play.	72444794	1473810538107	1473810538255	e	69
140180	1523995	And if he's not, then he doesn't play.	And if hes not , then he doesnt play.	72444795	1473810538287	1473810538377	 	32
140180	1523995	And if he's not, then he doesn't play.	And if hes not , then he doesnt play.	72444798	1473810539603	1473810539698	d	68
140180	1523995	And if he's not, then he doesn't play.	And if hes not , then he doesnt play.	72444800	1473810540151	1473810540251	o	79
140180	1523995	And if he's not, then he doesn't play.	And if hes not , then he doesnt play.	72444937	1473810540674	1473810540770	e	69
140180	1523995	And if he's not, then he doesn't play.	And if hes not , then he doesnt play.	72444942	1473810540832	1473810540998	s	83
140180	1523995	And if he's not, then he doesn't play.	And if hes not , then he doesnt play.	72444949	1473810542100	1473810542177	n	78
140180	1523995	And if he's not, then he doesn't play.	And if hes not , then he doesnt play.	72444955	1473810542536	1473810542690	t	84
140180	1523995	And if he's not, then he doesn't play.	And if hes not , then he doesnt play.	72444960	1473810542768	1473810542847	 	32
140180	1523995	And if he's not, then he doesn't play.	And if hes not , then he doesnt play.	72445118	1473810543381	1473810543465	p	80
140180	1523995	And if he's not, then he doesn't play.	And if hes not , then he doesnt play.	72445119	1473810543589	1473810543685	l	76
140180	1523995	And if he's not, then he doesn't play.	And if hes not , then he doesnt play.	72445120	1473810544312	1473810544478	a	65
140180	1523995	And if he's not, then he doesn't play.	And if hes not , then he doesnt play.	72445121	1473810544525	1473810544603	y	89
140180	1523995	And if he's not, then he doesn't play.	And if hes not , then he doesnt play.	72445122	1473810546211	1473810546278	.	190
140180	1524052	Is this the conference rate?	Is this the conference rate?	72445445	1473810549804	1473810550258	SHIFT	16
140180	1524052	Is this the conference rate?	Is this the conference rate?	72445447	1473810550165	1473810550258	I	73
140180	1524052	Is this the conference rate?	Is this the conference rate?	72445450	1473810550824	1473810550958	s	83
140180	1524052	Is this the conference rate?	Is this the conference rate?	72445453	1473810551461	1473810551546	 	32
140180	1524052	Is this the conference rate?	Is this the conference rate?	72445457	1473810552520	1473810552585	t	84
140180	1524052	Is this the conference rate?	Is this the conference rate?	72445460	1473810552710	1473810552786	h	72
140180	1524052	Is this the conference rate?	Is this the conference rate?	72445562	1473810553224	1473810553319	i	73
140180	1524052	Is this the conference rate?	Is this the conference rate?	72445565	1473810553538	1473810553700	s	83
140180	1524052	Is this the conference rate?	Is this the conference rate?	72445571	1473810553794	1473810553906	 	32
140180	1524052	Is this the conference rate?	Is this the conference rate?	72445576	1473810555163	1473810555229	t	84
140180	1524052	Is this the conference rate?	Is this the conference rate?	72445582	1473810555354	1473810555445	h	72
140180	1524052	Is this the conference rate?	Is this the conference rate?	72445719	1473810555619	1473810555776	e	69
140180	1524052	Is this the conference rate?	Is this the conference rate?	72445726	1473810555823	1473810555898	 	32
140180	1524052	Is this the conference rate?	Is this the conference rate?	72445728	1473810557358	1473810557437	c	67
140180	1524052	Is this the conference rate?	Is this the conference rate?	72445731	1473810557842	1473810557923	o	79
140180	1524052	Is this the conference rate?	Is this the conference rate?	72445734	1473810558189	1473810558257	n	78
140180	1524052	Is this the conference rate?	Is this the conference rate?	72445869	1473810559865	1473810559916	f	70
140180	1524052	Is this the conference rate?	Is this the conference rate?	72445871	1473810560337	1473810560400	e	69
140180	1524052	Is this the conference rate?	Is this the conference rate?	72445873	1473810560509	1473810560615	r	82
140180	1524052	Is this the conference rate?	Is this the conference rate?	72445874	1473810560708	1473810560801	e	69
140180	1524052	Is this the conference rate?	Is this the conference rate?	72445876	1473810561413	1473810561503	n	78
140180	1524052	Is this the conference rate?	Is this the conference rate?	72445991	1473810561863	1473810561954	c	67
140180	1524052	Is this the conference rate?	Is this the conference rate?	72445993	1473810562552	1473810562702	e	69
140180	1524052	Is this the conference rate?	Is this the conference rate?	72445995	1473810563108	1473810563209	 	32
140180	1524052	Is this the conference rate?	Is this the conference rate?	72445997	1473810563853	1473810563945	r	82
140180	1524052	Is this the conference rate?	Is this the conference rate?	72445999	1473810564070	1473810564241	a	65
140180	1524052	Is this the conference rate?	Is this the conference rate?	72446076	1473810564585	1473810564666	t	84
140180	1524052	Is this the conference rate?	Is this the conference rate?	72446077	1473810564838	1473810564980	e	69
140180	1524052	Is this the conference rate?	Is this the conference rate?	72446078	1473810566066	1473810566249	SHIFT	16
140180	1524052	Is this the conference rate?	Is this the conference rate?	72446079	1473810566206	1473810566336	?	191
140180	1524072	You know that I love you.	You know that I love you	72446500	1473810570159	1473810571140	SHIFT	16
140180	1524072	You know that I love you.	You know that I love you	72446507	1473810571042	1473810571155	Y	89
140180	1524072	You know that I love you.	You know that I love you	72446513	1473810571514	1473810571595	o	79
140180	1524072	You know that I love you.	You know that I love you	72446518	1473810572853	1473810572948	u	85
140180	1524072	You know that I love you.	You know that I love you	72446519	1473810573369	1473810573514	 	32
140180	1524072	You know that I love you.	You know that I love you	72446522	1473810574881	1473810574957	k	75
140180	1524072	You know that I love you.	You know that I love you	72446691	1473810575144	1473810575240	n	78
140180	1524072	You know that I love you.	You know that I love you	72446695	1473810575521	1473810575593	o	79
140180	1524072	You know that I love you.	You know that I love you	72446699	1473810575998	1473810576157	w	87
140180	1524072	You know that I love you.	You know that I love you	72446703	1473810576598	1473810576665	 	32
140180	1524072	You know that I love you.	You know that I love you	72446705	1473810578348	1473810578422	t	84
140180	1524072	You know that I love you.	You know that I love you	72446752	1473810578549	1473810578660	h	72
140180	1524072	You know that I love you.	You know that I love you	72446756	1473810578738	1473810578900	a	65
140180	1524072	You know that I love you.	You know that I love you	72446760	1473810578978	1473810579058	t	84
140180	1524072	You know that I love you.	You know that I love you	72446765	1473810579245	1473810579325	 	32
140180	1524072	You know that I love you.	You know that I love you	72446769	1473810580139	1473810580371	SHIFT	16
140180	1524072	You know that I love you.	You know that I love you	72446876	1473810580345	1473810580445	I	73
140180	1524072	You know that I love you.	You know that I love you	72446879	1473810580650	1473810580745	 	32
140180	1524072	You know that I love you.	You know that I love you	72446884	1473810581090	1473810581166	l	76
140180	1524072	You know that I love you.	You know that I love you	72446890	1473810581368	1473810581450	o	79
140180	1524072	You know that I love you.	You know that I love you	72446901	1473810582141	1473810582251	v	86
140180	1524072	You know that I love you.	You know that I love you	72446905	1473810582422	1473810582566	e	69
140180	1524072	You know that I love you.	You know that I love you	72447000	1473810582582	1473810582687	 	32
140180	1524072	You know that I love you.	You know that I love you	72447005	1473810583077	1473810583157	y	89
140180	1524072	You know that I love you.	You know that I love you	72447010	1473810583547	1473810583641	o	79
140180	1524072	You know that I love you.	You know that I love you	72447013	1473810583797	1473810583892	u	85
140180	1524089	Evaluating a lease offer on Sonoran project.	Evaluating a lease offer on sonoran project.	72447305	1473810587496	1473810588384	SHIFT	16
140180	1524089	Evaluating a lease offer on Sonoran project.	Evaluating a lease offer on sonoran project.	72447302	1473810588172	1473810588259	E	69
140180	1524089	Evaluating a lease offer on Sonoran project.	Evaluating a lease offer on sonoran project.	72447308	1473810588998	1473810589064	v	86
140180	1524089	Evaluating a lease offer on Sonoran project.	Evaluating a lease offer on sonoran project.	72447311	1473810589298	1473810589552	a	65
140180	1524089	Evaluating a lease offer on Sonoran project.	Evaluating a lease offer on sonoran project.	72447313	1473810589755	1473810589819	l	76
140180	1524089	Evaluating a lease offer on Sonoran project.	Evaluating a lease offer on sonoran project.	72447317	1473810590194	1473810590289	u	85
140180	1524089	Evaluating a lease offer on Sonoran project.	Evaluating a lease offer on sonoran project.	72447399	1473810590416	1473810590578	a	65
140180	1524089	Evaluating a lease offer on Sonoran project.	Evaluating a lease offer on sonoran project.	72447400	1473810590797	1473810590870	t	84
140180	1524089	Evaluating a lease offer on Sonoran project.	Evaluating a lease offer on sonoran project.	72447401	1473810591354	1473810591406	i	73
140180	1524089	Evaluating a lease offer on Sonoran project.	Evaluating a lease offer on sonoran project.	72447403	1473810591765	1473810591856	n	78
140180	1524089	Evaluating a lease offer on Sonoran project.	Evaluating a lease offer on sonoran project.	72447405	1473810592154	1473810592225	g	71
140180	1524089	Evaluating a lease offer on Sonoran project.	Evaluating a lease offer on sonoran project.	72447561	1473810593058	1473810593145	 	32
140180	1524089	Evaluating a lease offer on Sonoran project.	Evaluating a lease offer on sonoran project.	72447566	1473810593963	1473810594142	a	65
140180	1524089	Evaluating a lease offer on Sonoran project.	Evaluating a lease offer on sonoran project.	72447571	1473810594739	1473810594850	 	32
140180	1524089	Evaluating a lease offer on Sonoran project.	Evaluating a lease offer on sonoran project.	72447576	1473810595209	1473810595304	l	76
140180	1524089	Evaluating a lease offer on Sonoran project.	Evaluating a lease offer on sonoran project.	72447582	1473810595772	1473810595872	e	69
140180	1524089	Evaluating a lease offer on Sonoran project.	Evaluating a lease offer on sonoran project.	72447689	1473810595982	1473810596166	a	65
140180	1524089	Evaluating a lease offer on Sonoran project.	Evaluating a lease offer on sonoran project.	72447693	1473810596212	1473810596292	s	83
140180	1524089	Evaluating a lease offer on Sonoran project.	Evaluating a lease offer on sonoran project.	72447698	1473810596419	1473810596507	e	69
140180	1524089	Evaluating a lease offer on Sonoran project.	Evaluating a lease offer on sonoran project.	72447703	1473810597371	1473810597478	 	32
140180	1524089	Evaluating a lease offer on Sonoran project.	Evaluating a lease offer on sonoran project.	72447708	1473810598215	1473810598283	o	79
140180	1524089	Evaluating a lease offer on Sonoran project.	Evaluating a lease offer on sonoran project.	72447773	1473810598767	1473810598834	f	70
140180	1524089	Evaluating a lease offer on Sonoran project.	Evaluating a lease offer on sonoran project.	72447775	1473810598930	1473810599003	f	70
140180	1524089	Evaluating a lease offer on Sonoran project.	Evaluating a lease offer on sonoran project.	72447777	1473810599205	1473810599288	e	69
140180	1524089	Evaluating a lease offer on Sonoran project.	Evaluating a lease offer on sonoran project.	72447779	1473810599399	1473810599495	r	82
140180	1524089	Evaluating a lease offer on Sonoran project.	Evaluating a lease offer on sonoran project.	72447780	1473810600214	1473810600322	 	32
140180	1524089	Evaluating a lease offer on Sonoran project.	Evaluating a lease offer on sonoran project.	72447890	1473810601247	1473810601329	o	79
140180	1524089	Evaluating a lease offer on Sonoran project.	Evaluating a lease offer on sonoran project.	72447892	1473810601625	1473810601665	n	78
140180	1524089	Evaluating a lease offer on Sonoran project.	Evaluating a lease offer on sonoran project.	72447894	1473810601789	1473810601879	 	32
140180	1524089	Evaluating a lease offer on Sonoran project.	Evaluating a lease offer on sonoran project.	72447898	1473810602477	1473810602628	s	83
140180	1524089	Evaluating a lease offer on Sonoran project.	Evaluating a lease offer on sonoran project.	72447900	1473810602659	1473810602750	o	79
140180	1524089	Evaluating a lease offer on Sonoran project.	Evaluating a lease offer on sonoran project.	72448095	1473810602830	1473810602994	s	83
140180	1524089	Evaluating a lease offer on Sonoran project.	Evaluating a lease offer on sonoran project.	72448099	1473810603197	1473810603285	n	78
140180	1524089	Evaluating a lease offer on Sonoran project.	Evaluating a lease offer on sonoran project.	72448105	1473810603519	1473810603588	o	79
140180	1524089	Evaluating a lease offer on Sonoran project.	Evaluating a lease offer on sonoran project.	72448108	1473810605273	1473810605360	BKSP	8
140180	1524089	Evaluating a lease offer on Sonoran project.	Evaluating a lease offer on sonoran project.	72448110	1473810605469	1473810605530	BKSP	8
140180	1524089	Evaluating a lease offer on Sonoran project.	Evaluating a lease offer on sonoran project.	72448114	1473810605655	1473810605724	BKSP	8
140180	1524089	Evaluating a lease offer on Sonoran project.	Evaluating a lease offer on sonoran project.	72448118	1473810606624	1473810606684	n	78
140180	1524089	Evaluating a lease offer on Sonoran project.	Evaluating a lease offer on sonoran project.	72448121	1473810606980	1473810607051	o	79
140180	1524089	Evaluating a lease offer on Sonoran project.	Evaluating a lease offer on sonoran project.	72448317	1473810609302	1473810609382	r	82
140180	1524089	Evaluating a lease offer on Sonoran project.	Evaluating a lease offer on sonoran project.	72448319	1473810609491	1473810609685	a	65
140180	1524089	Evaluating a lease offer on Sonoran project.	Evaluating a lease offer on sonoran project.	72448321	1473810610060	1473810610145	n	78
140180	1524089	Evaluating a lease offer on Sonoran project.	Evaluating a lease offer on sonoran project.	72448325	1473810611088	1473810611183	 	32
140180	1524089	Evaluating a lease offer on Sonoran project.	Evaluating a lease offer on sonoran project.	72448327	1473810611881	1473810611955	p	80
140180	1524089	Evaluating a lease offer on Sonoran project.	Evaluating a lease offer on sonoran project.	72448638	1473810612707	1473810612869	r	82
140180	1524089	Evaluating a lease offer on Sonoran project.	Evaluating a lease offer on sonoran project.	72448643	1473810613025	1473810613092	o	79
140180	1524089	Evaluating a lease offer on Sonoran project.	Evaluating a lease offer on sonoran project.	72448647	1473810615908	1473810615986	j	74
140180	1524089	Evaluating a lease offer on Sonoran project.	Evaluating a lease offer on sonoran project.	72448650	1473810617385	1473810617584	e	69
140180	1524089	Evaluating a lease offer on Sonoran project.	Evaluating a lease offer on sonoran project.	72448652	1473810618014	1473810618095	c	67
140180	1524089	Evaluating a lease offer on Sonoran project.	Evaluating a lease offer on sonoran project.	72448876	1473810618518	1473810618615	t	84
140180	1524089	Evaluating a lease offer on Sonoran project.	Evaluating a lease offer on sonoran project.	72448880	1473810620203	1473810620962	SHIFT	16
140180	1524089	Evaluating a lease offer on Sonoran project.	Evaluating a lease offer on sonoran project.	72448879	1473810620754	1473810620931	>	190
140180	1524089	Evaluating a lease offer on Sonoran project.	Evaluating a lease offer on sonoran project.	72448883	1473810622127	1473810622195	BKSP	8
140180	1524089	Evaluating a lease offer on Sonoran project.	Evaluating a lease offer on sonoran project.	72448886	1473810622875	1473810622932	.	190
140180	1524131	We don't seem to have any positive income there.	We dont seem to have any positive income there.	72449168	1473810627401	1473810627718	SHIFT	16
140180	1524131	We don't seem to have any positive income there.	We dont seem to have any positive income there.	72449171	1473810627666	1473810627765	W	87
140180	1524131	We don't seem to have any positive income there.	We dont seem to have any positive income there.	72449177	1473810627921	1473810628016	e	69
140180	1524131	We don't seem to have any positive income there.	We dont seem to have any positive income there.	72449182	1473810628646	1473810628815	 	32
140180	1524131	We don't seem to have any positive income there.	We dont seem to have any positive income there.	72449185	1473810629240	1473810629431	d	68
140180	1524131	We don't seem to have any positive income there.	We dont seem to have any positive income there.	72449190	1473810629806	1473810629922	o	79
140180	1524131	We don't seem to have any positive income there.	We dont seem to have any positive income there.	72449320	1473810630266	1473810630402	n	78
140180	1524131	We don't seem to have any positive income there.	We dont seem to have any positive income there.	72449321	1473810630865	1473810631062	t	84
140180	1524131	We don't seem to have any positive income there.	We dont seem to have any positive income there.	72449322	1473810631560	1473810631726	 	32
140180	1524131	We don't seem to have any positive income there.	We dont seem to have any positive income there.	72449323	1473810632937	1473810633129	s	83
140180	1524131	We don't seem to have any positive income there.	We dont seem to have any positive income there.	72449325	1473810633379	1473810633456	e	69
140180	1524131	We don't seem to have any positive income there.	We dont seem to have any positive income there.	72449445	1473810633551	1473810633625	e	69
140180	1524131	We don't seem to have any positive income there.	We dont seem to have any positive income there.	72449450	1473810634643	1473810634773	m	77
140180	1524131	We don't seem to have any positive income there.	We dont seem to have any positive income there.	72449454	1473810634945	1473810635074	 	32
140180	1524131	We don't seem to have any positive income there.	We dont seem to have any positive income there.	72449460	1473810635892	1473810635966	t	84
140180	1524131	We don't seem to have any positive income there.	We dont seem to have any positive income there.	72449464	1473810636504	1473810636569	o	79
140180	1524131	We don't seem to have any positive income there.	We dont seem to have any positive income there.	72449535	1473810637023	1473810637151	 	32
140180	1524131	We don't seem to have any positive income there.	We dont seem to have any positive income there.	72449539	1473810637369	1473810637439	h	72
140180	1524131	We don't seem to have any positive income there.	We dont seem to have any positive income there.	72449542	1473810637641	1473810637832	a	65
140180	1524131	We don't seem to have any positive income there.	We dont seem to have any positive income there.	72449547	1473810638004	1473810638059	v	86
140180	1524131	We don't seem to have any positive income there.	We dont seem to have any positive income there.	72449550	1473810638325	1473810638470	e	69
140180	1524131	We don't seem to have any positive income there.	We dont seem to have any positive income there.	72449635	1473810638518	1473810638626	 	32
140180	1524131	We don't seem to have any positive income there.	We dont seem to have any positive income there.	72449636	1473810639566	1473810639757	a	65
140180	1524131	We don't seem to have any positive income there.	We dont seem to have any positive income there.	72449637	1473810640053	1473810640133	n	78
140180	1524131	We don't seem to have any positive income there.	We dont seem to have any positive income there.	72449638	1473810640460	1473810640536	y	89
140180	1524131	We don't seem to have any positive income there.	We dont seem to have any positive income there.	72449639	1473810641102	1473810641233	 	32
140180	1524131	We don't seem to have any positive income there.	We dont seem to have any positive income there.	72449747	1473810642309	1473810642375	p	80
140180	1524131	We don't seem to have any positive income there.	We dont seem to have any positive income there.	72449753	1473810642500	1473810642588	o	79
140180	1524131	We don't seem to have any positive income there.	We dont seem to have any positive income there.	72449759	1473810643206	1473810643419	s	83
140180	1524131	We don't seem to have any positive income there.	We dont seem to have any positive income there.	72449762	1473810643669	1473810643763	i	73
140180	1524131	We don't seem to have any positive income there.	We dont seem to have any positive income there.	72449765	1473810644331	1473810644415	t	84
140180	1524131	We don't seem to have any positive income there.	We dont seem to have any positive income there.	72449842	1473810644919	1473810644980	i	73
140180	1524131	We don't seem to have any positive income there.	We dont seem to have any positive income there.	72449843	1473810645479	1473810645554	v	86
140180	1524131	We don't seem to have any positive income there.	We dont seem to have any positive income there.	72449844	1473810645913	1473810646052	e	69
140180	1524131	We don't seem to have any positive income there.	We dont seem to have any positive income there.	72449845	1473810646161	1473810646273	 	32
140180	1524131	We don't seem to have any positive income there.	We dont seem to have any positive income there.	72449846	1473810646995	1473810647061	i	73
140180	1524131	We don't seem to have any positive income there.	We dont seem to have any positive income there.	72449889	1473810647297	1473810647378	n	78
140180	1524131	We don't seem to have any positive income there.	We dont seem to have any positive income there.	72449890	1473810648040	1473810648224	c	67
140180	1524131	We don't seem to have any positive income there.	We dont seem to have any positive income there.	72449891	1473810648270	1473810648354	o	79
140180	1524131	We don't seem to have any positive income there.	We dont seem to have any positive income there.	72449894	1473810648619	1473810648782	m	77
140180	1524131	We don't seem to have any positive income there.	We dont seem to have any positive income there.	72449897	1473810649032	1473810649212	e	69
140180	1524131	We don't seem to have any positive income there.	We dont seem to have any positive income there.	72449986	1473810649353	1473810649498	 	32
140180	1524131	We don't seem to have any positive income there.	We dont seem to have any positive income there.	72449988	1473810650252	1473810650339	t	84
140180	1524131	We don't seem to have any positive income there.	We dont seem to have any positive income there.	72449989	1473810650984	1473810651048	h	72
140180	1524131	We don't seem to have any positive income there.	We dont seem to have any positive income there.	72449990	1473810651627	1473810651711	e	69
140180	1524131	We don't seem to have any positive income there.	We dont seem to have any positive income there.	72449991	1473810651820	1473810651912	r	82
140180	1524131	We don't seem to have any positive income there.	We dont seem to have any positive income there.	72450053	1473810651992	1473810652111	e	69
140180	1524131	We don't seem to have any positive income there.	We dont seem to have any positive income there.	72450055	1473810652990	1473810653070	.	190
