PARTICIPANT_ID	TEST_SECTION_ID	SENTENCE	USER_INPUT	KEYSTROKE_ID	PRESS_TIME	RELEASE_TIME	LETTER	KEYCODE
282497	3032035	Japan's first man in space was a journalist.	Japan's first man in space was a journalst.	144016860	1475835509448	1475835509673	SHIFT	16
282497	3032035	Japan's first man in space was a journalist.	Japan's first man in space was a journalst.	144016858	1475835509514	1475835509620	CTRL	17
282497	3032035	Japan's first man in space was a journalist.	Japan's first man in space was a journalst.	144016862	1475835509601	1475835509701		74
282497	3032035	Japan's first man in space was a journalist.	Japan's first man in space was a journalst.	144016866	1475835509843	1475835509986	a	65
282497	3032035	Japan's first man in space was a journalist.	Japan's first man in space was a journalst.	144016871	1475835510851	1475835510945	BKSP	8
282497	3032035	Japan's first man in space was a journalist.	Japan's first man in space was a journalst.	144016883	1475835511092	1475835511492	SHIFT	16
282497	3032035	Japan's first man in space was a journalist.	Japan's first man in space was a journalst.	144016876	1475835511343	1475835511446	J	74
282497	3032035	Japan's first man in space was a journalist.	Japan's first man in space was a journalst.	144016890	1475835512174	1475835512325	a	65
282497	3032035	Japan's first man in space was a journalist.	Japan's first man in space was a journalst.	144016896	1475835512376	1475835512484	p	80
282497	3032035	Japan's first man in space was a journalist.	Japan's first man in space was a journalst.	144016993	1475835512494	1475835512598	a	65
282497	3032035	Japan's first man in space was a journalist.	Japan's first man in space was a journalst.	144016994	1475835513471	1475835513578	n	78
282497	3032035	Japan's first man in space was a journalist.	Japan's first man in space was a journalst.	144016995	1475835514213	1475835514388	s	83
282497	3032035	Japan's first man in space was a journalist.	Japan's first man in space was a journalst.	144016996	1475835515110	1475835515193	BKSP	8
282497	3032035	Japan's first man in space was a journalist.	Japan's first man in space was a journalst.	144016997	1475835515587	1475835515713	'	222
282497	3032035	Japan's first man in space was a journalist.	Japan's first man in space was a journalst.	144016998	1475835516463	1475835516631	s	83
282497	3032035	Japan's first man in space was a journalist.	Japan's first man in space was a journalst.	144017058	1475835516736	1475835516881	 	32
282497	3032035	Japan's first man in space was a journalist.	Japan's first man in space was a journalst.	144017060	1475835517590	1475835517715	f	70
282497	3032035	Japan's first man in space was a journalist.	Japan's first man in space was a journalst.	144017062	1475835517802	1475835517913	i	73
282497	3032035	Japan's first man in space was a journalist.	Japan's first man in space was a journalst.	144017065	1475835518021	1475835518117	r	82
282497	3032035	Japan's first man in space was a journalist.	Japan's first man in space was a journalst.	144017069	1475835518393	1475835518503	t	84
282497	3032035	Japan's first man in space was a journalist.	Japan's first man in space was a journalst.	144017191	1475835519558	1475835519660	BKSP	8
282497	3032035	Japan's first man in space was a journalist.	Japan's first man in space was a journalst.	144017193	1475835519842	1475835520011	s	83
282497	3032035	Japan's first man in space was a journalist.	Japan's first man in space was a journalst.	144017196	1475835520061	1475835520169	t	84
282497	3032035	Japan's first man in space was a journalist.	Japan's first man in space was a journalst.	144017199	1475835520180	1475835520320	 	32
282497	3032035	Japan's first man in space was a journalist.	Japan's first man in space was a journalst.	144017202	1475835520922	1475835521059	m	77
282497	3032035	Japan's first man in space was a journalist.	Japan's first man in space was a journalst.	144017237	1475835521056	1475835521185	a	65
282497	3032035	Japan's first man in space was a journalist.	Japan's first man in space was a journalst.	144017240	1475835521201	1475835521340	n	78
282497	3032035	Japan's first man in space was a journalist.	Japan's first man in space was a journalst.	144017243	1475835521413	1475835521520	 	32
282497	3032035	Japan's first man in space was a journalist.	Japan's first man in space was a journalst.	144017246	1475835522084	1475835522168	i	73
282497	3032035	Japan's first man in space was a journalist.	Japan's first man in space was a journalst.	144017249	1475835522294	1475835522386	n	78
282497	3032035	Japan's first man in space was a journalist.	Japan's first man in space was a journalst.	144017252	1475835522481	1475835522610	 	32
282497	3032035	Japan's first man in space was a journalist.	Japan's first man in space was a journalst.	144017289	1475835522714	1475835522821	s	83
282497	3032035	Japan's first man in space was a journalist.	Japan's first man in space was a journalst.	144017291	1475835522927	1475835523007	p	80
282497	3032035	Japan's first man in space was a journalist.	Japan's first man in space was a journalst.	144017292	1475835523120	1475835523240	a	65
282497	3032035	Japan's first man in space was a journalist.	Japan's first man in space was a journalst.	144017294	1475835523909	1475835524019	c	67
282497	3032035	Japan's first man in space was a journalist.	Japan's first man in space was a journalst.	144017296	1475835524086	1475835524165	e	69
282497	3032035	Japan's first man in space was a journalist.	Japan's first man in space was a journalst.	144017350	1475835524720	1475835524828	 	32
282497	3032035	Japan's first man in space was a journalist.	Japan's first man in space was a journalst.	144017352	1475835525035	1475835525109	w	87
282497	3032035	Japan's first man in space was a journalist.	Japan's first man in space was a journalst.	144017354	1475835525214	1475835525338	a	65
282497	3032035	Japan's first man in space was a journalist.	Japan's first man in space was a journalst.	144017356	1475835525416	1475835525511	s	83
282497	3032035	Japan's first man in space was a journalist.	Japan's first man in space was a journalst.	144017358	1475835525564	1475835525683	 	32
282497	3032035	Japan's first man in space was a journalist.	Japan's first man in space was a journalst.	144017397	1475835525694	1475835525794	a	65
282497	3032035	Japan's first man in space was a journalist.	Japan's first man in space was a journalst.	144017400	1475835525867	1475835525928	 	32
282497	3032035	Japan's first man in space was a journalist.	Japan's first man in space was a journalst.	144017404	1475835526866	1475835526957	j	74
282497	3032035	Japan's first man in space was a journalist.	Japan's first man in space was a journalst.	144017405	1475835527097	1475835527189	o	79
282497	3032035	Japan's first man in space was a journalist.	Japan's first man in space was a journalst.	144017406	1475835527355	1475835527451	u	85
282497	3032035	Japan's first man in space was a journalist.	Japan's first man in space was a journalst.	144017446	1475835527671	1475835527772	r	82
282497	3032035	Japan's first man in space was a journalist.	Japan's first man in space was a journalst.	144017448	1475835527879	1475835527994	n	78
282497	3032035	Japan's first man in space was a journalist.	Japan's first man in space was a journalst.	144017451	1475835528084	1475835528201	a	65
282497	3032035	Japan's first man in space was a journalist.	Japan's first man in space was a journalst.	144017455	1475835528312	1475835528396	l	76
282497	3032035	Japan's first man in space was a journalist.	Japan's first man in space was a journalst.	144017458	1475835528802	1475835528938	s	83
282497	3032035	Japan's first man in space was a journalist.	Japan's first man in space was a journalst.	144017515	1475835529012	1475835529114	t	84
282497	3032035	Japan's first man in space was a journalist.	Japan's first man in space was a journalst.	144017518	1475835530074	1475835530178	.	190
282497	3032054	She is scheduled to appear in New York on the Maury Povitch Show.	She is scheduled to appear in New York on the Maury Povitch Show.	144017853	1475835535880	1475835536109	SHIFT	16
282497	3032054	She is scheduled to appear in New York on the Maury Povitch Show.	She is scheduled to appear in New York on the Maury Povitch Show.	144017857	1475835536986	1475835537448	SHIFT	16
282497	3032054	She is scheduled to appear in New York on the Maury Povitch Show.	She is scheduled to appear in New York on the Maury Povitch Show.	144017855	1475835537311	1475835537415	S	83
282497	3032054	She is scheduled to appear in New York on the Maury Povitch Show.	She is scheduled to appear in New York on the Maury Povitch Show.	144017859	1475835537863	1475835537984	h	72
282497	3032054	She is scheduled to appear in New York on the Maury Povitch Show.	She is scheduled to appear in New York on the Maury Povitch Show.	144017862	1475835538131	1475835538260	 	32
282497	3032054	She is scheduled to appear in New York on the Maury Povitch Show.	She is scheduled to appear in New York on the Maury Povitch Show.	144017864	1475835539192	1475835539301	BKSP	8
282497	3032054	She is scheduled to appear in New York on the Maury Povitch Show.	She is scheduled to appear in New York on the Maury Povitch Show.	144017867	1475835539379	1475835539502	e	69
282497	3032054	She is scheduled to appear in New York on the Maury Povitch Show.	She is scheduled to appear in New York on the Maury Povitch Show.	144017870	1475835539540	1475835539650	 	32
282497	3032054	She is scheduled to appear in New York on the Maury Povitch Show.	She is scheduled to appear in New York on the Maury Povitch Show.	144017913	1475835539801	1475835539912	i	73
282497	3032054	She is scheduled to appear in New York on the Maury Povitch Show.	She is scheduled to appear in New York on the Maury Povitch Show.	144017917	1475835539946	1475835540066	s	83
282497	3032054	She is scheduled to appear in New York on the Maury Povitch Show.	She is scheduled to appear in New York on the Maury Povitch Show.	144017920	1475835540049	1475835540156	 	32
282497	3032054	She is scheduled to appear in New York on the Maury Povitch Show.	She is scheduled to appear in New York on the Maury Povitch Show.	144017924	1475835540449	1475835540560	s	83
282497	3032054	She is scheduled to appear in New York on the Maury Povitch Show.	She is scheduled to appear in New York on the Maury Povitch Show.	144017928	1475835540753	1475835540866	c	67
282497	3032054	She is scheduled to appear in New York on the Maury Povitch Show.	She is scheduled to appear in New York on the Maury Povitch Show.	144017965	1475835540922	1475835541021	h	72
282497	3032054	She is scheduled to appear in New York on the Maury Povitch Show.	She is scheduled to appear in New York on the Maury Povitch Show.	144017968	1475835541391	1475835541504	e	69
282497	3032054	She is scheduled to appear in New York on the Maury Povitch Show.	She is scheduled to appear in New York on the Maury Povitch Show.	144017971	1475835541596	1475835541713	d	68
282497	3032054	She is scheduled to appear in New York on the Maury Povitch Show.	She is scheduled to appear in New York on the Maury Povitch Show.	144017974	1475835541880	1475835541973	u	85
282497	3032054	She is scheduled to appear in New York on the Maury Povitch Show.	She is scheduled to appear in New York on the Maury Povitch Show.	144017976	1475835542186	1475835542284	l	76
282497	3032054	She is scheduled to appear in New York on the Maury Povitch Show.	She is scheduled to appear in New York on the Maury Povitch Show.	144018090	1475835542411	1475835542519	e	69
282497	3032054	She is scheduled to appear in New York on the Maury Povitch Show.	She is scheduled to appear in New York on the Maury Povitch Show.	144018091	1475835545490	1475835545585	d	68
282497	3032054	She is scheduled to appear in New York on the Maury Povitch Show.	She is scheduled to appear in New York on the Maury Povitch Show.	144018092	1475835545580	1475835545726	 	32
282497	3032054	She is scheduled to appear in New York on the Maury Povitch Show.	She is scheduled to appear in New York on the Maury Povitch Show.	144018093	1475835546368	1475835546514	t	84
282497	3032054	She is scheduled to appear in New York on the Maury Povitch Show.	She is scheduled to appear in New York on the Maury Povitch Show.	144018094	1475835546529	1475835546639	o	79
282497	3032054	She is scheduled to appear in New York on the Maury Povitch Show.	She is scheduled to appear in New York on the Maury Povitch Show.	144018141	1475835546625	1475835546776	 	32
282497	3032054	She is scheduled to appear in New York on the Maury Povitch Show.	She is scheduled to appear in New York on the Maury Povitch Show.	144018143	1475835547049	1475835547129	p	80
282497	3032054	She is scheduled to appear in New York on the Maury Povitch Show.	She is scheduled to appear in New York on the Maury Povitch Show.	144018146	1475835547194	1475835547315	p	80
282497	3032054	She is scheduled to appear in New York on the Maury Povitch Show.	She is scheduled to appear in New York on the Maury Povitch Show.	144018149	1475835547368	1475835547477	e	69
282497	3032054	She is scheduled to appear in New York on the Maury Povitch Show.	She is scheduled to appear in New York on the Maury Povitch Show.	144018151	1475835547687	1475835547822	a	65
282497	3032054	She is scheduled to appear in New York on the Maury Povitch Show.	She is scheduled to appear in New York on the Maury Povitch Show.	144018153	1475835548029	1475835548161	r	82
282497	3032054	She is scheduled to appear in New York on the Maury Povitch Show.	She is scheduled to appear in New York on the Maury Povitch Show.	144018256	1475835548156	1475835548282	 	32
282497	3032054	She is scheduled to appear in New York on the Maury Povitch Show.	She is scheduled to appear in New York on the Maury Povitch Show.	144018257	1475835548439	1475835548540	i	73
282497	3032054	She is scheduled to appear in New York on the Maury Povitch Show.	She is scheduled to appear in New York on the Maury Povitch Show.	144018258	1475835549589	1475835549679	BKSP	8
282497	3032054	She is scheduled to appear in New York on the Maury Povitch Show.	She is scheduled to appear in New York on the Maury Povitch Show.	144018259	1475835549774	1475835549843	BKSP	8
282497	3032054	She is scheduled to appear in New York on the Maury Povitch Show.	She is scheduled to appear in New York on the Maury Povitch Show.	144018261	1475835549910	1475835549980	BKSP	8
282497	3032054	She is scheduled to appear in New York on the Maury Povitch Show.	She is scheduled to appear in New York on the Maury Povitch Show.	144018263	1475835550199	1475835550236	BKSP	8
282497	3032054	She is scheduled to appear in New York on the Maury Povitch Show.	She is scheduled to appear in New York on the Maury Povitch Show.	144018266	1475835550453	1475835550507	BKSP	8
282497	3032054	She is scheduled to appear in New York on the Maury Povitch Show.	She is scheduled to appear in New York on the Maury Povitch Show.	144018269	1475835550650	1475835550728	BKSP	8
282497	3032054	She is scheduled to appear in New York on the Maury Povitch Show.	She is scheduled to appear in New York on the Maury Povitch Show.	144018272	1475835550820	1475835550942	BKSP	8
282497	3032054	She is scheduled to appear in New York on the Maury Povitch Show.	She is scheduled to appear in New York on the Maury Povitch Show.	144018274	1475835551490	1475835551704	a	65
282497	3032054	She is scheduled to appear in New York on the Maury Povitch Show.	She is scheduled to appear in New York on the Maury Povitch Show.	144018278	1475835552029	1475835552131	p	80
282497	3032054	She is scheduled to appear in New York on the Maury Povitch Show.	She is scheduled to appear in New York on the Maury Povitch Show.	144018280	1475835552181	1475835552297	p	80
282497	3032054	She is scheduled to appear in New York on the Maury Povitch Show.	She is scheduled to appear in New York on the Maury Povitch Show.	144018282	1475835552390	1475835552486	e	69
282497	3032054	She is scheduled to appear in New York on the Maury Povitch Show.	She is scheduled to appear in New York on the Maury Povitch Show.	144018301	1475835552608	1475835552741	a	65
282497	3032054	She is scheduled to appear in New York on the Maury Povitch Show.	She is scheduled to appear in New York on the Maury Povitch Show.	144018302	1475835552799	1475835552919	r	82
282497	3032054	She is scheduled to appear in New York on the Maury Povitch Show.	She is scheduled to appear in New York on the Maury Povitch Show.	144018303	1475835552966	1475835553089	 	32
282497	3032054	She is scheduled to appear in New York on the Maury Povitch Show.	She is scheduled to appear in New York on the Maury Povitch Show.	144018304	1475835553768	1475835553871	i	73
282497	3032054	She is scheduled to appear in New York on the Maury Povitch Show.	She is scheduled to appear in New York on the Maury Povitch Show.	144018305	1475835553992	1475835554111	n	78
282497	3032054	She is scheduled to appear in New York on the Maury Povitch Show.	She is scheduled to appear in New York on the Maury Povitch Show.	144018339	1475835554200	1475835554301	 	32
282497	3032054	She is scheduled to appear in New York on the Maury Povitch Show.	She is scheduled to appear in New York on the Maury Povitch Show.	144018342	1475835555047	1475835555317	SHIFT	16
282497	3032054	She is scheduled to appear in New York on the Maury Povitch Show.	She is scheduled to appear in New York on the Maury Povitch Show.	144018346	1475835555216	1475835555346	N	78
282497	3032054	She is scheduled to appear in New York on the Maury Povitch Show.	She is scheduled to appear in New York on the Maury Povitch Show.	144018348	1475835555732	1475835555807	e	69
282497	3032054	She is scheduled to appear in New York on the Maury Povitch Show.	She is scheduled to appear in New York on the Maury Povitch Show.	144018350	1475835555920	1475835556017	w	87
282497	3032054	She is scheduled to appear in New York on the Maury Povitch Show.	She is scheduled to appear in New York on the Maury Povitch Show.	144018352	1475835556055	1475835556163	 	32
282497	3032054	She is scheduled to appear in New York on the Maury Povitch Show.	She is scheduled to appear in New York on the Maury Povitch Show.	144018398	1475835556605	1475835556993	SHIFT	16
282497	3032054	She is scheduled to appear in New York on the Maury Povitch Show.	She is scheduled to appear in New York on the Maury Povitch Show.	144018399	1475835556883	1475835556999	Y	89
282497	3032054	She is scheduled to appear in New York on the Maury Povitch Show.	She is scheduled to appear in New York on the Maury Povitch Show.	144018400	1475835557337	1475835557443	o	79
282497	3032054	She is scheduled to appear in New York on the Maury Povitch Show.	She is scheduled to appear in New York on the Maury Povitch Show.	144018401	1475835557697	1475835557803	r	82
282497	3032054	She is scheduled to appear in New York on the Maury Povitch Show.	She is scheduled to appear in New York on the Maury Povitch Show.	144018402	1475835557982	1475835558111	k	75
282497	3032054	She is scheduled to appear in New York on the Maury Povitch Show.	She is scheduled to appear in New York on the Maury Povitch Show.	144018403	1475835558142	1475835558257	 	32
282497	3032054	She is scheduled to appear in New York on the Maury Povitch Show.	She is scheduled to appear in New York on the Maury Povitch Show.	144018454	1475835558858	1475835558965	o	79
282497	3032054	She is scheduled to appear in New York on the Maury Povitch Show.	She is scheduled to appear in New York on the Maury Povitch Show.	144018455	1475835559096	1475835559228	n	78
282497	3032054	She is scheduled to appear in New York on the Maury Povitch Show.	She is scheduled to appear in New York on the Maury Povitch Show.	144018456	1475835559320	1475835559417	 	32
282497	3032054	She is scheduled to appear in New York on the Maury Povitch Show.	She is scheduled to appear in New York on the Maury Povitch Show.	144018458	1475835559740	1475835559796	g	71
282497	3032054	She is scheduled to appear in New York on the Maury Povitch Show.	She is scheduled to appear in New York on the Maury Povitch Show.	144018460	1475835560453	1475835560560	BKSP	8
282497	3032054	She is scheduled to appear in New York on the Maury Povitch Show.	She is scheduled to appear in New York on the Maury Povitch Show.	144018462	1475835560884	1475835560979	t	84
282497	3032054	She is scheduled to appear in New York on the Maury Povitch Show.	She is scheduled to appear in New York on the Maury Povitch Show.	144018511	1475835561051	1475835561185	h	72
282497	3032054	She is scheduled to appear in New York on the Maury Povitch Show.	She is scheduled to appear in New York on the Maury Povitch Show.	144018512	1475835561290	1475835561397	 	32
282497	3032054	She is scheduled to appear in New York on the Maury Povitch Show.	She is scheduled to appear in New York on the Maury Povitch Show.	144018513	1475835562079	1475835562189	BKSP	8
282497	3032054	She is scheduled to appear in New York on the Maury Povitch Show.	She is scheduled to appear in New York on the Maury Povitch Show.	144018514	1475835562208	1475835562389	e	69
282497	3032054	She is scheduled to appear in New York on the Maury Povitch Show.	She is scheduled to appear in New York on the Maury Povitch Show.	144018516	1475835562601	1475835562717	 	32
282497	3032054	She is scheduled to appear in New York on the Maury Povitch Show.	She is scheduled to appear in New York on the Maury Povitch Show.	144018616	1475835563142	1475835563471	SHIFT	16
282497	3032054	She is scheduled to appear in New York on the Maury Povitch Show.	She is scheduled to appear in New York on the Maury Povitch Show.	144018518	1475835563349	1475835563464	M	77
282497	3032054	She is scheduled to appear in New York on the Maury Povitch Show.	She is scheduled to appear in New York on the Maury Povitch Show.	144018620	1475835564201	1475835564257	a	65
282497	3032054	She is scheduled to appear in New York on the Maury Povitch Show.	She is scheduled to appear in New York on the Maury Povitch Show.	144018624	1475835564886	1475835565003	u	85
282497	3032054	She is scheduled to appear in New York on the Maury Povitch Show.	She is scheduled to appear in New York on the Maury Povitch Show.	144018626	1475835565147	1475835565283	r	82
282497	3032054	She is scheduled to appear in New York on the Maury Povitch Show.	She is scheduled to appear in New York on the Maury Povitch Show.	144018627	1475835565432	1475835565570	 	32
282497	3032054	She is scheduled to appear in New York on the Maury Povitch Show.	She is scheduled to appear in New York on the Maury Povitch Show.	144018628	1475835566267	1475835566409	BKSP	8
282497	3032054	She is scheduled to appear in New York on the Maury Povitch Show.	She is scheduled to appear in New York on the Maury Povitch Show.	144018629	1475835566645	1475835566786	y	89
282497	3032054	She is scheduled to appear in New York on the Maury Povitch Show.	She is scheduled to appear in New York on the Maury Povitch Show.	144018696	1475835566901	1475835567034	 	32
282497	3032054	She is scheduled to appear in New York on the Maury Povitch Show.	She is scheduled to appear in New York on the Maury Povitch Show.	144018698	1475835568179	1475835568711	SHIFT	16
282497	3032054	She is scheduled to appear in New York on the Maury Povitch Show.	She is scheduled to appear in New York on the Maury Povitch Show.	144018697	1475835568567	1475835568686	P	80
282497	3032054	She is scheduled to appear in New York on the Maury Povitch Show.	She is scheduled to appear in New York on the Maury Povitch Show.	144018700	1475835568762	1475835568888	o	79
282497	3032054	She is scheduled to appear in New York on the Maury Povitch Show.	She is scheduled to appear in New York on the Maury Povitch Show.	144018702	1475835569389	1475835569518	v	86
282497	3032054	She is scheduled to appear in New York on the Maury Povitch Show.	She is scheduled to appear in New York on the Maury Povitch Show.	144018704	1475835570382	1475835570443	o	79
282497	3032054	She is scheduled to appear in New York on the Maury Povitch Show.	She is scheduled to appear in New York on the Maury Povitch Show.	144018769	1475835571475	1475835571573	BKSP	8
282497	3032054	She is scheduled to appear in New York on the Maury Povitch Show.	She is scheduled to appear in New York on the Maury Povitch Show.	144018771	1475835571903	1475835572015	i	73
282497	3032054	She is scheduled to appear in New York on the Maury Povitch Show.	She is scheduled to appear in New York on the Maury Povitch Show.	144018774	1475835572216	1475835572299	t	84
282497	3032054	She is scheduled to appear in New York on the Maury Povitch Show.	She is scheduled to appear in New York on the Maury Povitch Show.	144018777	1475835572591	1475835572706	c	67
282497	3032054	She is scheduled to appear in New York on the Maury Povitch Show.	She is scheduled to appear in New York on the Maury Povitch Show.	144018779	1475835572714	1475835572814	h	72
282497	3032054	She is scheduled to appear in New York on the Maury Povitch Show.	She is scheduled to appear in New York on the Maury Povitch Show.	144018781	1475835572895	1475835573012	 	32
282497	3032054	She is scheduled to appear in New York on the Maury Povitch Show.	She is scheduled to appear in New York on the Maury Povitch Show.	144018911	1475835573883	1475835574076	SHIFT	16
282497	3032054	She is scheduled to appear in New York on the Maury Povitch Show.	She is scheduled to appear in New York on the Maury Povitch Show.	144018916	1475835574817	1475835575136	SHIFT	16
282497	3032054	She is scheduled to appear in New York on the Maury Povitch Show.	She is scheduled to appear in New York on the Maury Povitch Show.	144018913	1475835574995	1475835575083	S	83
282497	3032054	She is scheduled to appear in New York on the Maury Povitch Show.	She is scheduled to appear in New York on the Maury Povitch Show.	144018921	1475835577981	1475835578086	h	72
282497	3032054	She is scheduled to appear in New York on the Maury Povitch Show.	She is scheduled to appear in New York on the Maury Povitch Show.	144018924	1475835578949	1475835579058	o	79
282497	3032054	She is scheduled to appear in New York on the Maury Povitch Show.	She is scheduled to appear in New York on the Maury Povitch Show.	144018929	1475835579316	1475835579451	w	87
282497	3032054	She is scheduled to appear in New York on the Maury Povitch Show.	She is scheduled to appear in New York on the Maury Povitch Show.	144018932	1475835579711	1475835579819	.	190
282497	3032080	England star Paul Gascoigne was one of the recipients of the loans.	England star Paul Gascoigne was one of the receiients of the loans.	144019125	1475835584575	1475835584922	SHIFT	16
282497	3032080	England star Paul Gascoigne was one of the recipients of the loans.	England star Paul Gascoigne was one of the receiients of the loans.	144019123	1475835584779	1475835584843	E	69
282497	3032080	England star Paul Gascoigne was one of the recipients of the loans.	England star Paul Gascoigne was one of the receiients of the loans.	144019128	1475835585854	1475835585943	n	78
282497	3032080	England star Paul Gascoigne was one of the recipients of the loans.	England star Paul Gascoigne was one of the receiients of the loans.	144019131	1475835586359	1475835586478	g	71
282497	3032080	England star Paul Gascoigne was one of the recipients of the loans.	England star Paul Gascoigne was one of the receiients of the loans.	144019132	1475835587313	1475835587419	l	76
282497	3032080	England star Paul Gascoigne was one of the recipients of the loans.	England star Paul Gascoigne was one of the receiients of the loans.	144019133	1475835587592	1475835587737	a	65
282497	3032080	England star Paul Gascoigne was one of the recipients of the loans.	England star Paul Gascoigne was one of the receiients of the loans.	144019163	1475835587786	1475835587908	n	78
282497	3032080	England star Paul Gascoigne was one of the recipients of the loans.	England star Paul Gascoigne was one of the receiients of the loans.	144019167	1475835587992	1475835588113	d	68
282497	3032080	England star Paul Gascoigne was one of the recipients of the loans.	England star Paul Gascoigne was one of the receiients of the loans.	144019171	1475835588129	1475835588218	 	32
282497	3032080	England star Paul Gascoigne was one of the recipients of the loans.	England star Paul Gascoigne was one of the receiients of the loans.	144019175	1475835588253	1475835588323	s	83
282497	3032080	England star Paul Gascoigne was one of the recipients of the loans.	England star Paul Gascoigne was one of the receiients of the loans.	144019178	1475835588957	1475835589091	t	84
282497	3032080	England star Paul Gascoigne was one of the recipients of the loans.	England star Paul Gascoigne was one of the receiients of the loans.	144019211	1475835589103	1475835589200	a	65
282497	3032080	England star Paul Gascoigne was one of the recipients of the loans.	England star Paul Gascoigne was one of the receiients of the loans.	144019213	1475835589212	1475835589311	r	82
282497	3032080	England star Paul Gascoigne was one of the recipients of the loans.	England star Paul Gascoigne was one of the receiients of the loans.	144019215	1475835589353	1475835589476	 	32
282497	3032080	England star Paul Gascoigne was one of the recipients of the loans.	England star Paul Gascoigne was one of the receiients of the loans.	144019217	1475835589900	1475835590238	SHIFT	16
282497	3032080	England star Paul Gascoigne was one of the recipients of the loans.	England star Paul Gascoigne was one of the receiients of the loans.	144019218	1475835590134	1475835590244	P	80
282497	3032080	England star Paul Gascoigne was one of the recipients of the loans.	England star Paul Gascoigne was one of the receiients of the loans.	144019219	1475835590432	1475835590533	a	65
282497	3032080	England star Paul Gascoigne was one of the recipients of the loans.	England star Paul Gascoigne was one of the receiients of the loans.	144019269	1475835590709	1475835590803	u	85
282497	3032080	England star Paul Gascoigne was one of the recipients of the loans.	England star Paul Gascoigne was one of the receiients of the loans.	144019271	1475835590963	1475835591023	;	186
282497	3032080	England star Paul Gascoigne was one of the recipients of the loans.	England star Paul Gascoigne was one of the receiients of the loans.	144019273	1475835591687	1475835591775	BKSP	8
282497	3032080	England star Paul Gascoigne was one of the recipients of the loans.	England star Paul Gascoigne was one of the receiients of the loans.	144019275	1475835591952	1475835592063	l	76
282497	3032080	England star Paul Gascoigne was one of the recipients of the loans.	England star Paul Gascoigne was one of the receiients of the loans.	144019277	1475835592498	1475835592613	 	32
282497	3032080	England star Paul Gascoigne was one of the recipients of the loans.	England star Paul Gascoigne was one of the receiients of the loans.	144019279	1475835593243	1475835593555	SHIFT	16
282497	3032080	England star Paul Gascoigne was one of the recipients of the loans.	England star Paul Gascoigne was one of the receiients of the loans.	144019333	1475835593455	1475835593568	G	71
282497	3032080	England star Paul Gascoigne was one of the recipients of the loans.	England star Paul Gascoigne was one of the receiients of the loans.	144019334	1475835593908	1475835594015	s	83
282497	3032080	England star Paul Gascoigne was one of the recipients of the loans.	England star Paul Gascoigne was one of the receiients of the loans.	144019335	1475835594927	1475835595036	BKSP	8
282497	3032080	England star Paul Gascoigne was one of the recipients of the loans.	England star Paul Gascoigne was one of the receiients of the loans.	144019336	1475835595075	1475835595192	a	65
282497	3032080	England star Paul Gascoigne was one of the recipients of the loans.	England star Paul Gascoigne was one of the receiients of the loans.	144019337	1475835595284	1475835595344	s	83
282497	3032080	England star Paul Gascoigne was one of the recipients of the loans.	England star Paul Gascoigne was one of the receiients of the loans.	144019338	1475835596561	1475835596683	c	67
282497	3032080	England star Paul Gascoigne was one of the recipients of the loans.	England star Paul Gascoigne was one of the receiients of the loans.	144019339	1475835596710	1475835596821	o	79
282497	3032080	England star Paul Gascoigne was one of the recipients of the loans.	England star Paul Gascoigne was one of the receiients of the loans.	144019374	1475835596901	1475835596990	i	73
282497	3032080	England star Paul Gascoigne was one of the recipients of the loans.	England star Paul Gascoigne was one of the receiients of the loans.	144019375	1475835597272	1475835597388	g	71
282497	3032080	England star Paul Gascoigne was one of the recipients of the loans.	England star Paul Gascoigne was one of the receiients of the loans.	144019376	1475835597523	1475835597658	n	78
282497	3032080	England star Paul Gascoigne was one of the recipients of the loans.	England star Paul Gascoigne was one of the receiients of the loans.	144019377	1475835597710	1475835597766	w	87
282497	3032080	England star Paul Gascoigne was one of the recipients of the loans.	England star Paul Gascoigne was one of the receiients of the loans.	144019379	1475835598397	1475835598475	BKSP	8
282497	3032080	England star Paul Gascoigne was one of the recipients of the loans.	England star Paul Gascoigne was one of the receiients of the loans.	144019381	1475835598521	1475835598627	e	69
282497	3032080	England star Paul Gascoigne was one of the recipients of the loans.	England star Paul Gascoigne was one of the receiients of the loans.	144019408	1475835598846	1475835598981	 	32
282497	3032080	England star Paul Gascoigne was one of the recipients of the loans.	England star Paul Gascoigne was one of the receiients of the loans.	144019410	1475835599221	1475835599318	w	87
282497	3032080	England star Paul Gascoigne was one of the recipients of the loans.	England star Paul Gascoigne was one of the receiients of the loans.	144019414	1475835599428	1475835599544	a	65
282497	3032080	England star Paul Gascoigne was one of the recipients of the loans.	England star Paul Gascoigne was one of the receiients of the loans.	144019418	1475835599586	1475835599719	s	83
282497	3032080	England star Paul Gascoigne was one of the recipients of the loans.	England star Paul Gascoigne was one of the receiients of the loans.	144019463	1475835599714	1475835599830	 	32
282497	3032080	England star Paul Gascoigne was one of the recipients of the loans.	England star Paul Gascoigne was one of the receiients of the loans.	144019466	1475835600560	1475835600662	o	79
282497	3032080	England star Paul Gascoigne was one of the recipients of the loans.	England star Paul Gascoigne was one of the receiients of the loans.	144019468	1475835600784	1475835600881	n	78
282497	3032080	England star Paul Gascoigne was one of the recipients of the loans.	England star Paul Gascoigne was one of the receiients of the loans.	144019470	1475835601348	1475835601495	e	69
282497	3032080	England star Paul Gascoigne was one of the recipients of the loans.	England star Paul Gascoigne was one of the receiients of the loans.	144019472	1475835601420	1475835601567	 	32
282497	3032080	England star Paul Gascoigne was one of the recipients of the loans.	England star Paul Gascoigne was one of the receiients of the loans.	144019474	1475835601717	1475835601820	o	79
282497	3032080	England star Paul Gascoigne was one of the recipients of the loans.	England star Paul Gascoigne was one of the receiients of the loans.	144019514	1475835602071	1475835602169	f	70
282497	3032080	England star Paul Gascoigne was one of the recipients of the loans.	England star Paul Gascoigne was one of the receiients of the loans.	144019517	1475835602200	1475835602260	 	32
282497	3032080	England star Paul Gascoigne was one of the recipients of the loans.	England star Paul Gascoigne was one of the receiients of the loans.	144019519	1475835603157	1475835603227	t	84
282497	3032080	England star Paul Gascoigne was one of the recipients of the loans.	England star Paul Gascoigne was one of the receiients of the loans.	144019522	1475835603340	1475835603424	h	72
282497	3032080	England star Paul Gascoigne was one of the recipients of the loans.	England star Paul Gascoigne was one of the receiients of the loans.	144019525	1475835603432	1475835603530	e	69
282497	3032080	England star Paul Gascoigne was one of the recipients of the loans.	England star Paul Gascoigne was one of the receiients of the loans.	144019570	1475835603761	1475835603861	 	32
282497	3032080	England star Paul Gascoigne was one of the recipients of the loans.	England star Paul Gascoigne was one of the receiients of the loans.	144019572	1475835604498	1475835604577	r	82
282497	3032080	England star Paul Gascoigne was one of the recipients of the loans.	England star Paul Gascoigne was one of the receiients of the loans.	144019574	1475835604672	1475835604768	e	69
282497	3032080	England star Paul Gascoigne was one of the recipients of the loans.	England star Paul Gascoigne was one of the receiients of the loans.	144019576	1475835604937	1475835604997	c	67
282497	3032080	England star Paul Gascoigne was one of the recipients of the loans.	England star Paul Gascoigne was one of the receiients of the loans.	144019578	1475835605200	1475835605299	e	69
282497	3032080	England star Paul Gascoigne was one of the recipients of the loans.	England star Paul Gascoigne was one of the receiients of the loans.	144019632	1475835605481	1475835605575	i	73
282497	3032080	England star Paul Gascoigne was one of the recipients of the loans.	England star Paul Gascoigne was one of the receiients of the loans.	144019635	1475835606359	1475835606464	i	73
282497	3032080	England star Paul Gascoigne was one of the recipients of the loans.	England star Paul Gascoigne was one of the receiients of the loans.	144019638	1475835606868	1475835606943	e	69
282497	3032080	England star Paul Gascoigne was one of the recipients of the loans.	England star Paul Gascoigne was one of the receiients of the loans.	144019640	1475835607198	1475835607313	n	78
282497	3032080	England star Paul Gascoigne was one of the recipients of the loans.	England star Paul Gascoigne was one of the receiients of the loans.	144019641	1475835607401	1475835607487	t	84
282497	3032080	England star Paul Gascoigne was one of the recipients of the loans.	England star Paul Gascoigne was one of the receiients of the loans.	144019679	1475835608218	1475835608311	s	83
282497	3032080	England star Paul Gascoigne was one of the recipients of the loans.	England star Paul Gascoigne was one of the receiients of the loans.	144019684	1475835608362	1475835608501	 	32
282497	3032080	England star Paul Gascoigne was one of the recipients of the loans.	England star Paul Gascoigne was one of the receiients of the loans.	144019688	1475835609090	1475835609223	o	79
282497	3032080	England star Paul Gascoigne was one of the recipients of the loans.	England star Paul Gascoigne was one of the receiients of the loans.	144019692	1475835609242	1475835609355	f	70
282497	3032080	England star Paul Gascoigne was one of the recipients of the loans.	England star Paul Gascoigne was one of the receiients of the loans.	144019696	1475835609371	1475835609481	 	32
282497	3032080	England star Paul Gascoigne was one of the recipients of the loans.	England star Paul Gascoigne was one of the receiients of the loans.	144019717	1475835609615	1475835609690	t	84
282497	3032080	England star Paul Gascoigne was one of the recipients of the loans.	England star Paul Gascoigne was one of the receiients of the loans.	144019721	1475835609785	1475835609899	h	72
282497	3032080	England star Paul Gascoigne was one of the recipients of the loans.	England star Paul Gascoigne was one of the receiients of the loans.	144019727	1475835609905	1475835610022	e	69
282497	3032080	England star Paul Gascoigne was one of the recipients of the loans.	England star Paul Gascoigne was one of the receiients of the loans.	144019731	1475835610013	1475835610142	 	32
282497	3032080	England star Paul Gascoigne was one of the recipients of the loans.	England star Paul Gascoigne was one of the receiients of the loans.	144019734	1475835610724	1475835610790	l	76
282497	3032080	England star Paul Gascoigne was one of the recipients of the loans.	England star Paul Gascoigne was one of the receiients of the loans.	144019773	1475835610901	1475835610989	o	79
282497	3032080	England star Paul Gascoigne was one of the recipients of the loans.	England star Paul Gascoigne was one of the receiients of the loans.	144019774	1475835611772	1475835611903	n	78
282497	3032080	England star Paul Gascoigne was one of the recipients of the loans.	England star Paul Gascoigne was one of the receiients of the loans.	144019775	1475835612433	1475835612549	BKSP	8
282497	3032080	England star Paul Gascoigne was one of the recipients of the loans.	England star Paul Gascoigne was one of the receiients of the loans.	144019777	1475835612601	1475835612749	a	65
282497	3032080	England star Paul Gascoigne was one of the recipients of the loans.	England star Paul Gascoigne was one of the receiients of the loans.	144019776	1475835612660	1475835612739	q	81
282497	3032080	England star Paul Gascoigne was one of the recipients of the loans.	England star Paul Gascoigne was one of the receiients of the loans.	144019778	1475835612887	1475835613009	n	78
282497	3032080	England star Paul Gascoigne was one of the recipients of the loans.	England star Paul Gascoigne was one of the receiients of the loans.	144019864	1475835613041	1475835613187	s	83
282497	3032080	England star Paul Gascoigne was one of the recipients of the loans.	England star Paul Gascoigne was one of the receiients of the loans.	144019865	1475835614059	1475835614142	BKSP	8
282497	3032080	England star Paul Gascoigne was one of the recipients of the loans.	England star Paul Gascoigne was one of the receiients of the loans.	144019866	1475835614221	1475835614274	BKSP	8
282497	3032080	England star Paul Gascoigne was one of the recipients of the loans.	England star Paul Gascoigne was one of the receiients of the loans.	144019867	1475835614755	1475835614843	BKSP	8
282497	3032080	England star Paul Gascoigne was one of the recipients of the loans.	England star Paul Gascoigne was one of the receiients of the loans.	144019868	1475835615271	1475835615385	n	78
282497	3032080	England star Paul Gascoigne was one of the recipients of the loans.	England star Paul Gascoigne was one of the receiients of the loans.	144019869	1475835615434	1475835615586	a	65
282497	3032080	England star Paul Gascoigne was one of the recipients of the loans.	England star Paul Gascoigne was one of the receiients of the loans.	144019870	1475835616133	1475835616289	BKSP	8
282497	3032080	England star Paul Gascoigne was one of the recipients of the loans.	England star Paul Gascoigne was one of the receiients of the loans.	144019871	1475835616382	1475835616598	s	83
282497	3032080	England star Paul Gascoigne was one of the recipients of the loans.	England star Paul Gascoigne was one of the receiients of the loans.	144019872	1475835617288	1475835617388	.	190
282497	3032095	Song was vice minister of the geology and mineral resources minister.	Song was vice minister of the geology and mineral resources minister.l	144020137	1475835629509	1475835629741	SHIFT	16
282497	3032095	Song was vice minister of the geology and mineral resources minister.	Song was vice minister of the geology and mineral resources minister.l	144020133	1475835629639	1475835629727	S	83
282497	3032095	Song was vice minister of the geology and mineral resources minister.	Song was vice minister of the geology and mineral resources minister.l	144020139	1475835630127	1475835630224	o	79
282497	3032095	Song was vice minister of the geology and mineral resources minister.	Song was vice minister of the geology and mineral resources minister.l	144020141	1475835630371	1475835630470	n	78
282497	3032095	Song was vice minister of the geology and mineral resources minister.	Song was vice minister of the geology and mineral resources minister.l	144020143	1475835630611	1475835630706	g	71
282497	3032095	Song was vice minister of the geology and mineral resources minister.	Song was vice minister of the geology and mineral resources minister.l	144020145	1475835630792	1475835630909	 	32
282497	3032095	Song was vice minister of the geology and mineral resources minister.	Song was vice minister of the geology and mineral resources minister.l	144020154	1475835630975	1475835631097	w	87
282497	3032095	Song was vice minister of the geology and mineral resources minister.	Song was vice minister of the geology and mineral resources minister.l	144020156	1475835631169	1475835631276	a	65
282497	3032095	Song was vice minister of the geology and mineral resources minister.	Song was vice minister of the geology and mineral resources minister.l	144020158	1475835631333	1475835631454	s	83
282497	3032095	Song was vice minister of the geology and mineral resources minister.	Song was vice minister of the geology and mineral resources minister.l	144020160	1475835631460	1475835631577	 	32
282497	3032095	Song was vice minister of the geology and mineral resources minister.	Song was vice minister of the geology and mineral resources minister.l	144020162	1475835631852	1475835631900	b	66
282497	3032095	Song was vice minister of the geology and mineral resources minister.	Song was vice minister of the geology and mineral resources minister.l	144020219	1475835632255	1475835632348	i	73
282497	3032095	Song was vice minister of the geology and mineral resources minister.	Song was vice minister of the geology and mineral resources minister.l	144020221	1475835632944	1475835633035	BKSP	8
282497	3032095	Song was vice minister of the geology and mineral resources minister.	Song was vice minister of the geology and mineral resources minister.l	144020223	1475835633076	1475835633171	BKSP	8
282497	3032095	Song was vice minister of the geology and mineral resources minister.	Song was vice minister of the geology and mineral resources minister.l	144020225	1475835633316	1475835633437	v	86
282497	3032095	Song was vice minister of the geology and mineral resources minister.	Song was vice minister of the geology and mineral resources minister.l	144020226	1475835633508	1475835633619	i	73
282497	3032095	Song was vice minister of the geology and mineral resources minister.	Song was vice minister of the geology and mineral resources minister.l	144020227	1475835633864	1475835633944	c	67
282497	3032095	Song was vice minister of the geology and mineral resources minister.	Song was vice minister of the geology and mineral resources minister.l	144020228	1475835634091	1475835634192	e	69
282497	3032095	Song was vice minister of the geology and mineral resources minister.	Song was vice minister of the geology and mineral resources minister.l	144020242	1475835634271	1475835634372	 	32
282497	3032095	Song was vice minister of the geology and mineral resources minister.	Song was vice minister of the geology and mineral resources minister.l	144020244	1475835634991	1475835635092	m	77
282497	3032095	Song was vice minister of the geology and mineral resources minister.	Song was vice minister of the geology and mineral resources minister.l	144020246	1475835635249	1475835635338	i	73
282497	3032095	Song was vice minister of the geology and mineral resources minister.	Song was vice minister of the geology and mineral resources minister.l	144020248	1475835635461	1475835635542	n	78
282497	3032095	Song was vice minister of the geology and mineral resources minister.	Song was vice minister of the geology and mineral resources minister.l	144020250	1475835635855	1475835635959	i	73
282497	3032095	Song was vice minister of the geology and mineral resources minister.	Song was vice minister of the geology and mineral resources minister.l	144020286	1475835636114	1475835636267	s	83
282497	3032095	Song was vice minister of the geology and mineral resources minister.	Song was vice minister of the geology and mineral resources minister.l	144020288	1475835636481	1475835636560	t	84
282497	3032095	Song was vice minister of the geology and mineral resources minister.	Song was vice minister of the geology and mineral resources minister.l	144020290	1475835636713	1475835636852	e	69
282497	3032095	Song was vice minister of the geology and mineral resources minister.	Song was vice minister of the geology and mineral resources minister.l	144020292	1475835636948	1475835637012	r	82
282497	3032095	Song was vice minister of the geology and mineral resources minister.	Song was vice minister of the geology and mineral resources minister.l	144020294	1475835637430	1475835637524	 	32
282497	3032095	Song was vice minister of the geology and mineral resources minister.	Song was vice minister of the geology and mineral resources minister.l	144020327	1475835638040	1475835638151	o	79
282497	3032095	Song was vice minister of the geology and mineral resources minister.	Song was vice minister of the geology and mineral resources minister.l	144020329	1475835638291	1475835638405	f	70
282497	3032095	Song was vice minister of the geology and mineral resources minister.	Song was vice minister of the geology and mineral resources minister.l	144020330	1475835638376	1475835638493	 	32
282497	3032095	Song was vice minister of the geology and mineral resources minister.	Song was vice minister of the geology and mineral resources minister.l	144020331	1475835638583	1475835638679	t	84
282497	3032095	Song was vice minister of the geology and mineral resources minister.	Song was vice minister of the geology and mineral resources minister.l	144020332	1475835638760	1475835638868	h	72
282497	3032095	Song was vice minister of the geology and mineral resources minister.	Song was vice minister of the geology and mineral resources minister.l	144020356	1475835638854	1475835638986	e	69
282497	3032095	Song was vice minister of the geology and mineral resources minister.	Song was vice minister of the geology and mineral resources minister.l	144020358	1475835638990	1475835639094	 	32
282497	3032095	Song was vice minister of the geology and mineral resources minister.	Song was vice minister of the geology and mineral resources minister.l	144020360	1475835639232	1475835639324	g	71
282497	3032095	Song was vice minister of the geology and mineral resources minister.	Song was vice minister of the geology and mineral resources minister.l	144020363	1475835639411	1475835639542	e	69
282497	3032095	Song was vice minister of the geology and mineral resources minister.	Song was vice minister of the geology and mineral resources minister.l	144020365	1475835639689	1475835639745	o	79
282497	3032095	Song was vice minister of the geology and mineral resources minister.	Song was vice minister of the geology and mineral resources minister.l	144020367	1475835640158	1475835640237	l	76
282497	3032095	Song was vice minister of the geology and mineral resources minister.	Song was vice minister of the geology and mineral resources minister.l	144020421	1475835640933	1475835641030	o	79
282497	3032095	Song was vice minister of the geology and mineral resources minister.	Song was vice minister of the geology and mineral resources minister.l	144020422	1475835641719	1475835641819	g	71
282497	3032095	Song was vice minister of the geology and mineral resources minister.	Song was vice minister of the geology and mineral resources minister.l	144020423	1475835641921	1475835642010	y	89
282497	3032095	Song was vice minister of the geology and mineral resources minister.	Song was vice minister of the geology and mineral resources minister.l	144020424	1475835642045	1475835642166	 	32
282497	3032095	Song was vice minister of the geology and mineral resources minister.	Song was vice minister of the geology and mineral resources minister.l	144020425	1475835642971	1475835643133	a	65
282497	3032095	Song was vice minister of the geology and mineral resources minister.	Song was vice minister of the geology and mineral resources minister.l	144020450	1475835643186	1475835643304	n	78
282497	3032095	Song was vice minister of the geology and mineral resources minister.	Song was vice minister of the geology and mineral resources minister.l	144020451	1475835643396	1475835643477	d	68
282497	3032095	Song was vice minister of the geology and mineral resources minister.	Song was vice minister of the geology and mineral resources minister.l	144020452	1475835643483	1475835643582	 	32
282497	3032095	Song was vice minister of the geology and mineral resources minister.	Song was vice minister of the geology and mineral resources minister.l	144020453	1475835644115	1475835644213	m	77
282497	3032095	Song was vice minister of the geology and mineral resources minister.	Song was vice minister of the geology and mineral resources minister.l	144020454	1475835644347	1475835644426	i	73
282497	3032095	Song was vice minister of the geology and mineral resources minister.	Song was vice minister of the geology and mineral resources minister.l	144020490	1475835644527	1475835644620	n	78
282497	3032095	Song was vice minister of the geology and mineral resources minister.	Song was vice minister of the geology and mineral resources minister.l	144020492	1475835644801	1475835644937	e	69
282497	3032095	Song was vice minister of the geology and mineral resources minister.	Song was vice minister of the geology and mineral resources minister.l	144020494	1475835645044	1475835645128	r	82
282497	3032095	Song was vice minister of the geology and mineral resources minister.	Song was vice minister of the geology and mineral resources minister.l	144020496	1475835645360	1475835645541	a	65
282497	3032095	Song was vice minister of the geology and mineral resources minister.	Song was vice minister of the geology and mineral resources minister.l	144020540	1475835645524	1475835645631	l	76
282497	3032095	Song was vice minister of the geology and mineral resources minister.	Song was vice minister of the geology and mineral resources minister.l	144020541	1475835646673	1475835646780	 	32
282497	3032095	Song was vice minister of the geology and mineral resources minister.	Song was vice minister of the geology and mineral resources minister.l	144020543	1475835647019	1475835647107	r	82
282497	3032095	Song was vice minister of the geology and mineral resources minister.	Song was vice minister of the geology and mineral resources minister.l	144020545	1475835647190	1475835647278	e	69
282497	3032095	Song was vice minister of the geology and mineral resources minister.	Song was vice minister of the geology and mineral resources minister.l	144020547	1475835647394	1475835647498	s	83
282497	3032095	Song was vice minister of the geology and mineral resources minister.	Song was vice minister of the geology and mineral resources minister.l	144020549	1475835647785	1475835647887	o	79
282497	3032095	Song was vice minister of the geology and mineral resources minister.	Song was vice minister of the geology and mineral resources minister.l	144020580	1475835648043	1475835648141	u	85
282497	3032095	Song was vice minister of the geology and mineral resources minister.	Song was vice minister of the geology and mineral resources minister.l	144020581	1475835648553	1475835648650	r	82
282497	3032095	Song was vice minister of the geology and mineral resources minister.	Song was vice minister of the geology and mineral resources minister.l	144020582	1475835648801	1475835648871	c	67
282497	3032095	Song was vice minister of the geology and mineral resources minister.	Song was vice minister of the geology and mineral resources minister.l	144020583	1475835648936	1475835649047	e	69
282497	3032095	Song was vice minister of the geology and mineral resources minister.	Song was vice minister of the geology and mineral resources minister.l	144020584	1475835649160	1475835649280	s	83
282497	3032095	Song was vice minister of the geology and mineral resources minister.	Song was vice minister of the geology and mineral resources minister.l	144020622	1475835649317	1475835649434	 	32
282497	3032095	Song was vice minister of the geology and mineral resources minister.	Song was vice minister of the geology and mineral resources minister.l	144020623	1475835650554	1475835650687	m	77
282497	3032095	Song was vice minister of the geology and mineral resources minister.	Song was vice minister of the geology and mineral resources minister.l	144020624	1475835650998	1475835651092	i	73
282497	3032095	Song was vice minister of the geology and mineral resources minister.	Song was vice minister of the geology and mineral resources minister.l	144020625	1475835651206	1475835651295	n	78
282497	3032095	Song was vice minister of the geology and mineral resources minister.	Song was vice minister of the geology and mineral resources minister.l	144020626	1475835651782	1475835651869	i	73
282497	3032095	Song was vice minister of the geology and mineral resources minister.	Song was vice minister of the geology and mineral resources minister.l	144020636	1475835652058	1475835652198	s	83
282497	3032095	Song was vice minister of the geology and mineral resources minister.	Song was vice minister of the geology and mineral resources minister.l	144020638	1475835652190	1475835652298	t	84
282497	3032095	Song was vice minister of the geology and mineral resources minister.	Song was vice minister of the geology and mineral resources minister.l	144020640	1475835652461	1475835652555	e	69
282497	3032095	Song was vice minister of the geology and mineral resources minister.	Song was vice minister of the geology and mineral resources minister.l	144020641	1475835653021	1475835653142	r	82
282497	3032095	Song was vice minister of the geology and mineral resources minister.	Song was vice minister of the geology and mineral resources minister.l	144020642	1475835653288	1475835653344	r	82
282497	3032095	Song was vice minister of the geology and mineral resources minister.	Song was vice minister of the geology and mineral resources minister.l	144020667	1475835654224	1475835654315	BKSP	8
282497	3032095	Song was vice minister of the geology and mineral resources minister.	Song was vice minister of the geology and mineral resources minister.l	144020670	1475835654611	1475835654692	l	190
282497	3032112	We'd suggest playing Brady, who will start against.	We'd suggest playing Brady, who will start against.	144020845	1475835660274	1475835660565	SHIFT	16
282497	3032112	We'd suggest playing Brady, who will start against.	We'd suggest playing Brady, who will start against.	144020847	1475835660592	1475835660665	e	51
282497	3032112	We'd suggest playing Brady, who will start against.	We'd suggest playing Brady, who will start against.	144020849	1475835661484	1475835661581	BKSP	8
282497	3032112	We'd suggest playing Brady, who will start against.	We'd suggest playing Brady, who will start against.	144020851	1475835661616	1475835661695	BKSP	8
282497	3032112	We'd suggest playing Brady, who will start against.	We'd suggest playing Brady, who will start against.	144020855	1475835661820	1475835662558	SHIFT	16
282497	3032112	We'd suggest playing Brady, who will start against.	We'd suggest playing Brady, who will start against.	144020853	1475835662381	1475835662479	W	87
282497	3032112	We'd suggest playing Brady, who will start against.	We'd suggest playing Brady, who will start against.	144020856	1475835662632	1475835662720	e	69
282497	3032112	We'd suggest playing Brady, who will start against.	We'd suggest playing Brady, who will start against.	144020857	1475835663653	1475835663750	'	222
282497	3032112	We'd suggest playing Brady, who will start against.	We'd suggest playing Brady, who will start against.	144020897	1475835663953	1475835664089	d	68
282497	3032112	We'd suggest playing Brady, who will start against.	We'd suggest playing Brady, who will start against.	144020900	1475835664116	1475835664209	 	32
282497	3032112	We'd suggest playing Brady, who will start against.	We'd suggest playing Brady, who will start against.	144020903	1475835664969	1475835665108	s	83
282497	3032112	We'd suggest playing Brady, who will start against.	We'd suggest playing Brady, who will start against.	144020906	1475835665179	1475835665283	u	85
282497	3032112	We'd suggest playing Brady, who will start against.	We'd suggest playing Brady, who will start against.	144020907	1475835665649	1475835665725	g	71
282497	3032112	We'd suggest playing Brady, who will start against.	We'd suggest playing Brady, who will start against.	144020946	1475835665792	1475835665889	g	71
282497	3032112	We'd suggest playing Brady, who will start against.	We'd suggest playing Brady, who will start against.	144020947	1475835665901	1475835666010	e	69
282497	3032112	We'd suggest playing Brady, who will start against.	We'd suggest playing Brady, who will start against.	144020948	1475835666104	1475835666211	s	83
282497	3032112	We'd suggest playing Brady, who will start against.	We'd suggest playing Brady, who will start against.	144020949	1475835666215	1475835666316	t	84
282497	3032112	We'd suggest playing Brady, who will start against.	We'd suggest playing Brady, who will start against.	144020950	1475835667159	1475835667259	 	32
282497	3032112	We'd suggest playing Brady, who will start against.	We'd suggest playing Brady, who will start against.	144021002	1475835667441	1475835667510	p	80
282497	3032112	We'd suggest playing Brady, who will start against.	We'd suggest playing Brady, who will start against.	144021004	1475835667609	1475835667709	l	76
282497	3032112	We'd suggest playing Brady, who will start against.	We'd suggest playing Brady, who will start against.	144021006	1475835667817	1475835667950	a	65
282497	3032112	We'd suggest playing Brady, who will start against.	We'd suggest playing Brady, who will start against.	144021008	1475835668804	1475835668884	y	89
282497	3032112	We'd suggest playing Brady, who will start against.	We'd suggest playing Brady, who will start against.	144021009	1475835669199	1475835669281	i	73
282497	3032112	We'd suggest playing Brady, who will start against.	We'd suggest playing Brady, who will start against.	144021047	1475835669436	1475835669536	n	78
282497	3032112	We'd suggest playing Brady, who will start against.	We'd suggest playing Brady, who will start against.	144021049	1475835669706	1475835669797	g	71
282497	3032112	We'd suggest playing Brady, who will start against.	We'd suggest playing Brady, who will start against.	144021052	1475835669918	1475835670025	 	32
282497	3032112	We'd suggest playing Brady, who will start against.	We'd suggest playing Brady, who will start against.	144021054	1475835670694	1475835671316	SHIFT	16
282497	3032112	We'd suggest playing Brady, who will start against.	We'd suggest playing Brady, who will start against.	144021057	1475835671228	1475835671345	B	66
282497	3032112	We'd suggest playing Brady, who will start against.	We'd suggest playing Brady, who will start against.	144021060	1475835671570	1475835671657	r	82
282497	3032112	We'd suggest playing Brady, who will start against.	We'd suggest playing Brady, who will start against.	144021114	1475835671714	1475835671858	a	65
282497	3032112	We'd suggest playing Brady, who will start against.	We'd suggest playing Brady, who will start against.	144021116	1475835671833	1475835671938	d	68
282497	3032112	We'd suggest playing Brady, who will start against.	We'd suggest playing Brady, who will start against.	144021118	1475835672541	1475835672647	y	89
282497	3032112	We'd suggest playing Brady, who will start against.	We'd suggest playing Brady, who will start against.	144021119	1475835674147	1475835674219	,	188
282497	3032112	We'd suggest playing Brady, who will start against.	We'd suggest playing Brady, who will start against.	144021120	1475835674391	1475835674500	 	32
282497	3032112	We'd suggest playing Brady, who will start against.	We'd suggest playing Brady, who will start against.	144021139	1475835674544	1475835674664	w	87
282497	3032112	We'd suggest playing Brady, who will start against.	We'd suggest playing Brady, who will start against.	144021142	1475835675395	1475835675486	h	72
282497	3032112	We'd suggest playing Brady, who will start against.	We'd suggest playing Brady, who will start against.	144021145	1475835675797	1475835675906	o	79
282497	3032112	We'd suggest playing Brady, who will start against.	We'd suggest playing Brady, who will start against.	144021148	1475835675915	1475835676040	 	32
282497	3032112	We'd suggest playing Brady, who will start against.	We'd suggest playing Brady, who will start against.	144021150	1475835676074	1475835676186	w	87
282497	3032112	We'd suggest playing Brady, who will start against.	We'd suggest playing Brady, who will start against.	144021170	1475835676196	1475835676285	i	73
282497	3032112	We'd suggest playing Brady, who will start against.	We'd suggest playing Brady, who will start against.	144021171	1475835676576	1475835676655	l	76
282497	3032112	We'd suggest playing Brady, who will start against.	We'd suggest playing Brady, who will start against.	144021172	1475835676779	1475835676844	l	76
282497	3032112	We'd suggest playing Brady, who will start against.	We'd suggest playing Brady, who will start against.	144021174	1475835677388	1475835677512	 	32
282497	3032112	We'd suggest playing Brady, who will start against.	We'd suggest playing Brady, who will start against.	144021176	1475835677839	1475835677959	s	83
282497	3032112	We'd suggest playing Brady, who will start against.	We'd suggest playing Brady, who will start against.	144021196	1475835678027	1475835678130	t	84
282497	3032112	We'd suggest playing Brady, who will start against.	We'd suggest playing Brady, who will start against.	144021197	1475835678125	1475835678252	a	65
282497	3032112	We'd suggest playing Brady, who will start against.	We'd suggest playing Brady, who will start against.	144021198	1475835678344	1475835678383	r	82
282497	3032112	We'd suggest playing Brady, who will start against.	We'd suggest playing Brady, who will start against.	144021199	1475835678987	1475835679080	t	84
282497	3032112	We'd suggest playing Brady, who will start against.	We'd suggest playing Brady, who will start against.	144021200	1475835679118	1475835679242	 	32
282497	3032112	We'd suggest playing Brady, who will start against.	We'd suggest playing Brady, who will start against.	144021233	1475835679439	1475835679582	a	65
282497	3032112	We'd suggest playing Brady, who will start against.	We'd suggest playing Brady, who will start against.	144021236	1475835679672	1475835679765	f	70
282497	3032112	We'd suggest playing Brady, who will start against.	We'd suggest playing Brady, who will start against.	144021239	1475835680519	1475835680591	BKSP	8
282497	3032112	We'd suggest playing Brady, who will start against.	We'd suggest playing Brady, who will start against.	144021242	1475835680920	1475835681016	g	71
282497	3032112	We'd suggest playing Brady, who will start against.	We'd suggest playing Brady, who will start against.	144021247	1475835681035	1475835681181	a	65
282497	3032112	We'd suggest playing Brady, who will start against.	We'd suggest playing Brady, who will start against.	144021251	1475835681367	1475835681423	i	73
282497	3032112	We'd suggest playing Brady, who will start against.	We'd suggest playing Brady, who will start against.	144021277	1475835681613	1475835681675	n	78
282497	3032112	We'd suggest playing Brady, who will start against.	We'd suggest playing Brady, who will start against.	144021278	1475835682576	1475835682702	s	83
282497	3032112	We'd suggest playing Brady, who will start against.	We'd suggest playing Brady, who will start against.	144021279	1475835682710	1475835682819	t	84
282497	3032112	We'd suggest playing Brady, who will start against.	We'd suggest playing Brady, who will start against.	144021280	1475835683619	1475835683712	.	190
282497	3032125	Bob, I'll take Oakland as my winner this week.	Bob, I'll take Oakland as my winner this weekl.	144021354	1475835688104	1475835688398	SHIFT	16
282497	3032125	Bob, I'll take Oakland as my winner this week.	Bob, I'll take Oakland as my winner this weekl.	144021353	1475835688232	1475835688328	B	66
282497	3032125	Bob, I'll take Oakland as my winner this week.	Bob, I'll take Oakland as my winner this weekl.	144021355	1475835688559	1475835688676	o	79
282497	3032125	Bob, I'll take Oakland as my winner this week.	Bob, I'll take Oakland as my winner this weekl.	144021357	1475835688833	1475835688922	b	66
282497	3032125	Bob, I'll take Oakland as my winner this week.	Bob, I'll take Oakland as my winner this weekl.	144021359	1475835689469	1475835689541	,	188
282497	3032125	Bob, I'll take Oakland as my winner this week.	Bob, I'll take Oakland as my winner this weekl.	144021363	1475835689668	1475835689770	 	32
282497	3032125	Bob, I'll take Oakland as my winner this week.	Bob, I'll take Oakland as my winner this weekl.	144021438	1475835690192	1475835690445	SHIFT	16
282497	3032125	Bob, I'll take Oakland as my winner this week.	Bob, I'll take Oakland as my winner this weekl.	144021437	1475835690350	1475835690437	I	73
282497	3032125	Bob, I'll take Oakland as my winner this week.	Bob, I'll take Oakland as my winner this weekl.	144021439	1475835691426	1475835691524	'	222
282497	3032125	Bob, I'll take Oakland as my winner this week.	Bob, I'll take Oakland as my winner this weekl.	144021440	1475835691977	1475835692061	l	76
282497	3032125	Bob, I'll take Oakland as my winner this week.	Bob, I'll take Oakland as my winner this weekl.	144021441	1475835692629	1475835692746	 	32
282497	3032125	Bob, I'll take Oakland as my winner this week.	Bob, I'll take Oakland as my winner this weekl.	144021442	1475835693365	1475835693457	BKSP	8
282497	3032125	Bob, I'll take Oakland as my winner this week.	Bob, I'll take Oakland as my winner this weekl.	144021443	1475835693691	1475835693799	l	76
282497	3032125	Bob, I'll take Oakland as my winner this week.	Bob, I'll take Oakland as my winner this weekl.	144021459	1475835693883	1475835694011	 	32
282497	3032125	Bob, I'll take Oakland as my winner this week.	Bob, I'll take Oakland as my winner this weekl.	144021460	1475835694272	1475835694374	t	84
282497	3032125	Bob, I'll take Oakland as my winner this week.	Bob, I'll take Oakland as my winner this weekl.	144021462	1475835694668	1475835694803	a	65
282497	3032125	Bob, I'll take Oakland as my winner this week.	Bob, I'll take Oakland as my winner this weekl.	144021464	1475835694885	1475835695009	k	75
282497	3032125	Bob, I'll take Oakland as my winner this week.	Bob, I'll take Oakland as my winner this weekl.	144021466	1475835695076	1475835695220	e	69
282497	3032125	Bob, I'll take Oakland as my winner this week.	Bob, I'll take Oakland as my winner this weekl.	144021503	1475835695238	1475835695341	 	32
282497	3032125	Bob, I'll take Oakland as my winner this week.	Bob, I'll take Oakland as my winner this weekl.	144021504	1475835696325	1475835696582	SHIFT	16
282497	3032125	Bob, I'll take Oakland as my winner this week.	Bob, I'll take Oakland as my winner this weekl.	144021505	1475835696513	1475835696592	O	79
282497	3032125	Bob, I'll take Oakland as my winner this week.	Bob, I'll take Oakland as my winner this weekl.	144021506	1475835697046	1475835697237	a	65
282497	3032125	Bob, I'll take Oakland as my winner this week.	Bob, I'll take Oakland as my winner this weekl.	144021508	1475835697479	1475835697576	k	75
282497	3032125	Bob, I'll take Oakland as my winner this week.	Bob, I'll take Oakland as my winner this weekl.	144021510	1475835697698	1475835697786	l	76
282497	3032125	Bob, I'll take Oakland as my winner this week.	Bob, I'll take Oakland as my winner this weekl.	144021530	1475835697885	1475835698044	a	65
282497	3032125	Bob, I'll take Oakland as my winner this week.	Bob, I'll take Oakland as my winner this weekl.	144021532	1475835698133	1475835698239	n	78
282497	3032125	Bob, I'll take Oakland as my winner this week.	Bob, I'll take Oakland as my winner this weekl.	144021535	1475835698319	1475835698445	d	68
282497	3032125	Bob, I'll take Oakland as my winner this week.	Bob, I'll take Oakland as my winner this weekl.	144021537	1475835698459	1475835698591	 	32
282497	3032125	Bob, I'll take Oakland as my winner this week.	Bob, I'll take Oakland as my winner this weekl.	144021539	1475835699000	1475835699157	a	65
282497	3032125	Bob, I'll take Oakland as my winner this week.	Bob, I'll take Oakland as my winner this weekl.	144021595	1475835699237	1475835699362	s	83
282497	3032125	Bob, I'll take Oakland as my winner this week.	Bob, I'll take Oakland as my winner this weekl.	144021598	1475835699332	1475835699466	 	32
282497	3032125	Bob, I'll take Oakland as my winner this week.	Bob, I'll take Oakland as my winner this weekl.	144021601	1475835700713	1475835700825	m	77
282497	3032125	Bob, I'll take Oakland as my winner this week.	Bob, I'll take Oakland as my winner this weekl.	144021602	1475835701039	1475835701103	h	72
282497	3032125	Bob, I'll take Oakland as my winner this week.	Bob, I'll take Oakland as my winner this weekl.	144021604	1475835702135	1475835702235	BKSP	8
282497	3032125	Bob, I'll take Oakland as my winner this week.	Bob, I'll take Oakland as my winner this weekl.	144021605	1475835702567	1475835702686	y	89
282497	3032125	Bob, I'll take Oakland as my winner this week.	Bob, I'll take Oakland as my winner this weekl.	144021626	1475835702695	1475835702836	 	32
282497	3032125	Bob, I'll take Oakland as my winner this week.	Bob, I'll take Oakland as my winner this weekl.	144021627	1475835702975	1475835703111	w	87
282497	3032125	Bob, I'll take Oakland as my winner this week.	Bob, I'll take Oakland as my winner this weekl.	144021628	1475835703151	1475835703252	i	73
282497	3032125	Bob, I'll take Oakland as my winner this week.	Bob, I'll take Oakland as my winner this weekl.	144021629	1475835703519	1475835703604	n	78
282497	3032125	Bob, I'll take Oakland as my winner this week.	Bob, I'll take Oakland as my winner this weekl.	144021630	1475835703788	1475835703891	n	78
282497	3032125	Bob, I'll take Oakland as my winner this week.	Bob, I'll take Oakland as my winner this weekl.	144021661	1475835704265	1475835704397	e	69
282497	3032125	Bob, I'll take Oakland as my winner this week.	Bob, I'll take Oakland as my winner this weekl.	144021662	1475835704466	1475835704573	r	82
282497	3032125	Bob, I'll take Oakland as my winner this week.	Bob, I'll take Oakland as my winner this weekl.	144021663	1475835704599	1475835704724	 	32
282497	3032125	Bob, I'll take Oakland as my winner this week.	Bob, I'll take Oakland as my winner this weekl.	144021664	1475835705325	1475835705422	t	84
282497	3032125	Bob, I'll take Oakland as my winner this week.	Bob, I'll take Oakland as my winner this weekl.	144021665	1475835705513	1475835705619	h	72
282497	3032125	Bob, I'll take Oakland as my winner this week.	Bob, I'll take Oakland as my winner this weekl.	144021692	1475835705878	1475835705983	i	73
282497	3032125	Bob, I'll take Oakland as my winner this week.	Bob, I'll take Oakland as my winner this weekl.	144021693	1475835706022	1475835706153	s	83
282497	3032125	Bob, I'll take Oakland as my winner this week.	Bob, I'll take Oakland as my winner this weekl.	144021694	1475835706108	1475835706223	 	32
282497	3032125	Bob, I'll take Oakland as my winner this week.	Bob, I'll take Oakland as my winner this weekl.	144021695	1475835706762	1475835706889	w	87
282497	3032125	Bob, I'll take Oakland as my winner this week.	Bob, I'll take Oakland as my winner this weekl.	144021696	1475835707055	1475835707159	e	69
282497	3032125	Bob, I'll take Oakland as my winner this week.	Bob, I'll take Oakland as my winner this weekl.	144021728	1475835707210	1475835707327	e	69
282497	3032125	Bob, I'll take Oakland as my winner this week.	Bob, I'll take Oakland as my winner this weekl.	144021730	1475835707372	1475835707483	k	75
282497	3032125	Bob, I'll take Oakland as my winner this week.	Bob, I'll take Oakland as my winner this weekl.	144021732	1475835708291	1475835708357	.	76
282497	3032133	I'll be up to nine or 10 by Saturday.	I'll be up to nine or 10 by Saturday.	144021849	1475835714990	1475835715264	SHIFT	16
282497	3032133	I'll be up to nine or 10 by Saturday.	I'll be up to nine or 10 by Saturday.	144021847	1475835715140	1475835715236	I	73
282497	3032133	I'll be up to nine or 10 by Saturday.	I'll be up to nine or 10 by Saturday.	144021851	1475835716348	1475835716438	'	222
282497	3032133	I'll be up to nine or 10 by Saturday.	I'll be up to nine or 10 by Saturday.	144021852	1475835716772	1475835716836	l	76
282497	3032133	I'll be up to nine or 10 by Saturday.	I'll be up to nine or 10 by Saturday.	144021853	1475835716926	1475835717018	l	76
282497	3032133	I'll be up to nine or 10 by Saturday.	I'll be up to nine or 10 by Saturday.	144021854	1475835717177	1475835717255	 	32
282497	3032133	I'll be up to nine or 10 by Saturday.	I'll be up to nine or 10 by Saturday.	144021879	1475835717855	1475835717954	b	66
282497	3032133	I'll be up to nine or 10 by Saturday.	I'll be up to nine or 10 by Saturday.	144021881	1475835717996	1475835718128	e	69
282497	3032133	I'll be up to nine or 10 by Saturday.	I'll be up to nine or 10 by Saturday.	144021883	1475835718111	1475835718217	 	32
282497	3032133	I'll be up to nine or 10 by Saturday.	I'll be up to nine or 10 by Saturday.	144021885	1475835718302	1475835718398	u	85
282497	3032133	I'll be up to nine or 10 by Saturday.	I'll be up to nine or 10 by Saturday.	144021887	1475835718739	1475835718838	p	80
282497	3032133	I'll be up to nine or 10 by Saturday.	I'll be up to nine or 10 by Saturday.	144021917	1475835718897	1475835719019	 	32
282497	3032133	I'll be up to nine or 10 by Saturday.	I'll be up to nine or 10 by Saturday.	144021918	1475835719755	1475835719908	t	84
282497	3032133	I'll be up to nine or 10 by Saturday.	I'll be up to nine or 10 by Saturday.	144021919	1475835719995	1475835720135	 	32
282497	3032133	I'll be up to nine or 10 by Saturday.	I'll be up to nine or 10 by Saturday.	144021920	1475835721282	1475835721371	BKSP	8
282497	3032133	I'll be up to nine or 10 by Saturday.	I'll be up to nine or 10 by Saturday.	144021921	1475835721644	1475835721719	o	79
282497	3032133	I'll be up to nine or 10 by Saturday.	I'll be up to nine or 10 by Saturday.	144021922	1475835721786	1475835721915	 	32
282497	3032133	I'll be up to nine or 10 by Saturday.	I'll be up to nine or 10 by Saturday.	144021960	1475835722916	1475835722997	n	78
282497	3032133	I'll be up to nine or 10 by Saturday.	I'll be up to nine or 10 by Saturday.	144021964	1475835723131	1475835723227	i	73
282497	3032133	I'll be up to nine or 10 by Saturday.	I'll be up to nine or 10 by Saturday.	144021969	1475835723583	1475835723690	n	78
282497	3032133	I'll be up to nine or 10 by Saturday.	I'll be up to nine or 10 by Saturday.	144021973	1475835723785	1475835723948	e	69
282497	3032133	I'll be up to nine or 10 by Saturday.	I'll be up to nine or 10 by Saturday.	144021976	1475835725313	1475835725443	 	32
282497	3032133	I'll be up to nine or 10 by Saturday.	I'll be up to nine or 10 by Saturday.	144021993	1475835725539	1475835725659	o	79
282497	3032133	I'll be up to nine or 10 by Saturday.	I'll be up to nine or 10 by Saturday.	144021994	1475835725792	1475835725922	r	82
282497	3032133	I'll be up to nine or 10 by Saturday.	I'll be up to nine or 10 by Saturday.	144021995	1475835725925	1475835726048	 	32
282497	3032133	I'll be up to nine or 10 by Saturday.	I'll be up to nine or 10 by Saturday.	144021996	1475835726389	1475835726501	1	49
282497	3032133	I'll be up to nine or 10 by Saturday.	I'll be up to nine or 10 by Saturday.	144021997	1475835726520	1475835726654	0	48
282497	3032133	I'll be up to nine or 10 by Saturday.	I'll be up to nine or 10 by Saturday.	144022036	1475835726647	1475835726774	 	32
282497	3032133	I'll be up to nine or 10 by Saturday.	I'll be up to nine or 10 by Saturday.	144022037	1475835727501	1475835727602	b	66
282497	3032133	I'll be up to nine or 10 by Saturday.	I'll be up to nine or 10 by Saturday.	144022038	1475835727716	1475835727828	y	89
282497	3032133	I'll be up to nine or 10 by Saturday.	I'll be up to nine or 10 by Saturday.	144022039	1475835727855	1475835727984	 	32
282497	3032133	I'll be up to nine or 10 by Saturday.	I'll be up to nine or 10 by Saturday.	144022040	1475835728277	1475835728530	SHIFT	16
282497	3032133	I'll be up to nine or 10 by Saturday.	I'll be up to nine or 10 by Saturday.	144022041	1475835728418	1475835728536	S	83
282497	3032133	I'll be up to nine or 10 by Saturday.	I'll be up to nine or 10 by Saturday.	144022042	1475835729559	1475835729715	a	65
282497	3032133	I'll be up to nine or 10 by Saturday.	I'll be up to nine or 10 by Saturday.	144022081	1475835730171	1475835730258	t	84
282497	3032133	I'll be up to nine or 10 by Saturday.	I'll be up to nine or 10 by Saturday.	144022083	1475835730638	1475835730735	u	85
282497	3032133	I'll be up to nine or 10 by Saturday.	I'll be up to nine or 10 by Saturday.	144022085	1475835731399	1475835731499	r	82
282497	3032133	I'll be up to nine or 10 by Saturday.	I'll be up to nine or 10 by Saturday.	144022087	1475835731622	1475835731738	d	68
282497	3032133	I'll be up to nine or 10 by Saturday.	I'll be up to nine or 10 by Saturday.	144022089	1475835731876	1475835731990	a	65
282497	3032133	I'll be up to nine or 10 by Saturday.	I'll be up to nine or 10 by Saturday.	144022107	1475835732067	1475835732165	y	89
282497	3032133	I'll be up to nine or 10 by Saturday.	I'll be up to nine or 10 by Saturday.	144022108	1475835732621	1475835732702	.	190
282497	3032138	I will try to make sure I'm in good shape.	I will try to make sure I'm in good shape.	144022207	1475835736792	1475835737161	SHIFT	16
282497	3032138	I will try to make sure I'm in good shape.	I will try to make sure I'm in good shape.	144022209	1475835737195	1475835737260	i	73
282497	3032138	I will try to make sure I'm in good shape.	I will try to make sure I'm in good shape.	144022211	1475835738049	1475835738153	BKSP	8
282497	3032138	I will try to make sure I'm in good shape.	I will try to make sure I'm in good shape.	144022215	1475835738389	1475835739072	SHIFT	16
282497	3032138	I will try to make sure I'm in good shape.	I will try to make sure I'm in good shape.	144022213	1475835738910	1475835739050	I	73
282497	3032138	I will try to make sure I'm in good shape.	I will try to make sure I'm in good shape.	144022217	1475835739427	1475835739539	 	32
282497	3032138	I will try to make sure I'm in good shape.	I will try to make sure I'm in good shape.	144022219	1475835740028	1475835740178	w	87
282497	3032138	I will try to make sure I'm in good shape.	I will try to make sure I'm in good shape.	144022232	1475835740173	1475835740281	i	73
282497	3032138	I will try to make sure I'm in good shape.	I will try to make sure I'm in good shape.	144022234	1475835740470	1475835740570	l	76
282497	3032138	I will try to make sure I'm in good shape.	I will try to make sure I'm in good shape.	144022236	1475835740617	1475835740727	l	76
282497	3032138	I will try to make sure I'm in good shape.	I will try to make sure I'm in good shape.	144022238	1475835740805	1475835740912	 	32
282497	3032138	I will try to make sure I'm in good shape.	I will try to make sure I'm in good shape.	144022240	1475835741144	1475835741242	t	84
282497	3032138	I will try to make sure I'm in good shape.	I will try to make sure I'm in good shape.	144022241	1475835741360	1475835741444	r	82
282497	3032138	I will try to make sure I'm in good shape.	I will try to make sure I'm in good shape.	144022249	1475835741826	1475835741941	y	89
282497	3032138	I will try to make sure I'm in good shape.	I will try to make sure I'm in good shape.	144022251	1475835741959	1475835742088	 	32
282497	3032138	I will try to make sure I'm in good shape.	I will try to make sure I'm in good shape.	144022253	1475835742123	1475835742245	t	84
282497	3032138	I will try to make sure I'm in good shape.	I will try to make sure I'm in good shape.	144022255	1475835742282	1475835742394	o	79
282497	3032138	I will try to make sure I'm in good shape.	I will try to make sure I'm in good shape.	144022258	1475835742573	1475835742689	 	32
282497	3032138	I will try to make sure I'm in good shape.	I will try to make sure I'm in good shape.	144022292	1475835742836	1475835742932	m	77
282497	3032138	I will try to make sure I'm in good shape.	I will try to make sure I'm in good shape.	144022294	1475835742993	1475835743131	a	65
282497	3032138	I will try to make sure I'm in good shape.	I will try to make sure I'm in good shape.	144022296	1475835743626	1475835743750	k	75
282497	3032138	I will try to make sure I'm in good shape.	I will try to make sure I'm in good shape.	144022298	1475835743858	1475835743998	e	69
282497	3032138	I will try to make sure I'm in good shape.	I will try to make sure I'm in good shape.	144022300	1475835744207	1475835744291	 	32
282497	3032138	I will try to make sure I'm in good shape.	I will try to make sure I'm in good shape.	144022309	1475835744771	1475835744937	s	83
282497	3032138	I will try to make sure I'm in good shape.	I will try to make sure I'm in good shape.	144022310	1475835744941	1475835745074	u	85
282497	3032138	I will try to make sure I'm in good shape.	I will try to make sure I'm in good shape.	144022311	1475835745169	1475835745252	r	82
282497	3032138	I will try to make sure I'm in good shape.	I will try to make sure I'm in good shape.	144022312	1475835745376	1475835745511	e	69
282497	3032138	I will try to make sure I'm in good shape.	I will try to make sure I'm in good shape.	144022313	1475835745581	1475835745656	 	32
282497	3032138	I will try to make sure I'm in good shape.	I will try to make sure I'm in good shape.	144022360	1475835746829	1475835747154	SHIFT	16
282497	3032138	I will try to make sure I'm in good shape.	I will try to make sure I'm in good shape.	144022359	1475835747038	1475835747144	I	73
282497	3032138	I will try to make sure I'm in good shape.	I will try to make sure I'm in good shape.	144022361	1475835747574	1475835747686	'	222
282497	3032138	I will try to make sure I'm in good shape.	I will try to make sure I'm in good shape.	144022362	1475835747904	1475835748051	m	77
282497	3032138	I will try to make sure I'm in good shape.	I will try to make sure I'm in good shape.	144022363	1475835748143	1475835748267	 	32
282497	3032138	I will try to make sure I'm in good shape.	I will try to make sure I'm in good shape.	144022364	1475835748819	1475835748902	i	73
282497	3032138	I will try to make sure I'm in good shape.	I will try to make sure I'm in good shape.	144022447	1475835749065	1475835749181	n	78
282497	3032138	I will try to make sure I'm in good shape.	I will try to make sure I'm in good shape.	144022448	1475835749256	1475835749377	 	32
282497	3032138	I will try to make sure I'm in good shape.	I will try to make sure I'm in good shape.	144022451	1475835749954	1475835750029	o	79
282497	3032138	I will try to make sure I'm in good shape.	I will try to make sure I'm in good shape.	144022454	1475835750101	1475835750187	o	79
282497	3032138	I will try to make sure I'm in good shape.	I will try to make sure I'm in good shape.	144022458	1475835751296	1475835751347	BKSP	8
282497	3032138	I will try to make sure I'm in good shape.	I will try to make sure I'm in good shape.	144022461	1475835751704	1475835751811	BKSP	8
282497	3032138	I will try to make sure I'm in good shape.	I will try to make sure I'm in good shape.	144022463	1475835753169	1475835753276	o	79
282497	3032138	I will try to make sure I'm in good shape.	I will try to make sure I'm in good shape.	144022495	1475835753852	1475835754000	BKSP	8
282497	3032138	I will try to make sure I'm in good shape.	I will try to make sure I'm in good shape.	144022496	1475835754278	1475835754457	g	71
282497	3032138	I will try to make sure I'm in good shape.	I will try to make sure I'm in good shape.	144022497	1475835754963	1475835755064	p	80
282497	3032138	I will try to make sure I'm in good shape.	I will try to make sure I'm in good shape.	144022498	1475835755543	1475835755640	BKSP	8
282497	3032138	I will try to make sure I'm in good shape.	I will try to make sure I'm in good shape.	144022499	1475835756305	1475835756391	o	79
282497	3032138	I will try to make sure I'm in good shape.	I will try to make sure I'm in good shape.	144022500	1475835756444	1475835756569	o	79
282497	3032138	I will try to make sure I'm in good shape.	I will try to make sure I'm in good shape.	144022501	1475835757587	1475835757740	d	68
282497	3032138	I will try to make sure I'm in good shape.	I will try to make sure I'm in good shape.	144022529	1475835757842	1475835757979	 	32
282497	3032138	I will try to make sure I'm in good shape.	I will try to make sure I'm in good shape.	144022530	1475835758002	1475835758150	s	83
282497	3032138	I will try to make sure I'm in good shape.	I will try to make sure I'm in good shape.	144022531	1475835758530	1475835758652	h	72
282497	3032138	I will try to make sure I'm in good shape.	I will try to make sure I'm in good shape.	144022533	1475835759005	1475835759169	a	65
282497	3032138	I will try to make sure I'm in good shape.	I will try to make sure I'm in good shape.	144022535	1475835759208	1475835759329	p	80
282497	3032138	I will try to make sure I'm in good shape.	I will try to make sure I'm in good shape.	144022549	1475835759507	1475835759646	e	69
282497	3032138	I will try to make sure I'm in good shape.	I will try to make sure I'm in good shape.	144022553	1475835759996	1475835760108	.	190
282497	3032147	I hope we'll get the game here in Denver.	I hope we'll get the game here in Denver	144022602	1475835763166	1475835763635	SHIFT	16
282497	3032147	I hope we'll get the game here in Denver.	I hope we'll get the game here in Denver	144022600	1475835763527	1475835763629	I	73
282497	3032147	I hope we'll get the game here in Denver.	I hope we'll get the game here in Denver	144022604	1475835763715	1475835763835	 	32
282497	3032147	I hope we'll get the game here in Denver.	I hope we'll get the game here in Denver	144022605	1475835764345	1475835764451	h	72
282497	3032147	I hope we'll get the game here in Denver.	I hope we'll get the game here in Denver	144022606	1475835765415	1475835765577	e	69
282497	3032147	I hope we'll get the game here in Denver.	I hope we'll get the game here in Denver	144022607	1475835765600	1475835765734	 	32
282497	3032147	I hope we'll get the game here in Denver.	I hope we'll get the game here in Denver	144022640	1475835766413	1475835766497	BKSP	8
282497	3032147	I hope we'll get the game here in Denver.	I hope we'll get the game here in Denver	144022641	1475835766558	1475835766668	BKSP	8
282497	3032147	I hope we'll get the game here in Denver.	I hope we'll get the game here in Denver	144022642	1475835767191	1475835767277	o	79
282497	3032147	I hope we'll get the game here in Denver.	I hope we'll get the game here in Denver	144022643	1475835767364	1475835767478	p	80
282497	3032147	I hope we'll get the game here in Denver.	I hope we'll get the game here in Denver	144022644	1475835767683	1475835767822	e	69
282497	3032147	I hope we'll get the game here in Denver.	I hope we'll get the game here in Denver	144022645	1475835767812	1475835767928	 	32
282497	3032147	I hope we'll get the game here in Denver.	I hope we'll get the game here in Denver	144022646	1475835768613	1475835768739	w	87
282497	3032147	I hope we'll get the game here in Denver.	I hope we'll get the game here in Denver	144022659	1475835768827	1475835768951	e	69
282497	3032147	I hope we'll get the game here in Denver.	I hope we'll get the game here in Denver	144022660	1475835769473	1475835769579	'	222
282497	3032147	I hope we'll get the game here in Denver.	I hope we'll get the game here in Denver	144022661	1475835769992	1475835770063	l	76
282497	3032147	I hope we'll get the game here in Denver.	I hope we'll get the game here in Denver	144022662	1475835770129	1475835770242	l	76
282497	3032147	I hope we'll get the game here in Denver.	I hope we'll get the game here in Denver	144022663	1475835770344	1475835770444	 	32
282497	3032147	I hope we'll get the game here in Denver.	I hope we'll get the game here in Denver	144022686	1475835771012	1475835771124	g	71
282497	3032147	I hope we'll get the game here in Denver.	I hope we'll get the game here in Denver	144022687	1475835771159	1475835771295	e	69
282497	3032147	I hope we'll get the game here in Denver.	I hope we'll get the game here in Denver	144022688	1475835771283	1475835771407	t	84
282497	3032147	I hope we'll get the game here in Denver.	I hope we'll get the game here in Denver	144022689	1475835771467	1475835771601	 	32
282497	3032147	I hope we'll get the game here in Denver.	I hope we'll get the game here in Denver	144022691	1475835771651	1475835771752	t	84
282497	3032147	I hope we'll get the game here in Denver.	I hope we'll get the game here in Denver	144022706	1475835771837	1475835771949	h	72
282497	3032147	I hope we'll get the game here in Denver.	I hope we'll get the game here in Denver	144022707	1475835771971	1475835772098	e	69
282497	3032147	I hope we'll get the game here in Denver.	I hope we'll get the game here in Denver	144022708	1475835772045	1475835772157	 	32
282497	3032147	I hope we'll get the game here in Denver.	I hope we'll get the game here in Denver	144022709	1475835772863	1475835772971	g	71
282497	3032147	I hope we'll get the game here in Denver.	I hope we'll get the game here in Denver	144022710	1475835772996	1475835773136	a	65
282497	3032147	I hope we'll get the game here in Denver.	I hope we'll get the game here in Denver	144022718	1475835773223	1475835773355	m	77
282497	3032147	I hope we'll get the game here in Denver.	I hope we'll get the game here in Denver	144022720	1475835773377	1475835773448	e	68
282497	3032147	I hope we'll get the game here in Denver.	I hope we'll get the game here in Denver	144022721	1475835773523	1475835773612	 	32
282497	3032147	I hope we'll get the game here in Denver.	I hope we'll get the game here in Denver	144022723	1475835774525	1475835774619	BKSP	8
282497	3032147	I hope we'll get the game here in Denver.	I hope we'll get the game here in Denver	144022724	1475835774679	1475835774763	BKSP	8
282497	3032147	I hope we'll get the game here in Denver.	I hope we'll get the game here in Denver	144022725	1475835774816	1475835774914	BKSP	8
282497	3032147	I hope we'll get the game here in Denver.	I hope we'll get the game here in Denver	144022726	1475835775352	1475835775451	e	69
282497	3032147	I hope we'll get the game here in Denver.	I hope we'll get the game here in Denver	144022747	1475835775464	1475835775577	 	32
282497	3032147	I hope we'll get the game here in Denver.	I hope we'll get the game here in Denver	144022750	1475835776206	1475835776344	h	72
282497	3032147	I hope we'll get the game here in Denver.	I hope we'll get the game here in Denver	144022752	1475835776359	1475835776503	e	69
282497	3032147	I hope we'll get the game here in Denver.	I hope we'll get the game here in Denver	144022754	1475835776565	1475835776647	r	82
282497	3032147	I hope we'll get the game here in Denver.	I hope we'll get the game here in Denver	144022756	1475835776710	1475835776823	e	69
282497	3032147	I hope we'll get the game here in Denver.	I hope we'll get the game here in Denver	144022776	1475835776845	1475835776975	 	32
282497	3032147	I hope we'll get the game here in Denver.	I hope we'll get the game here in Denver	144022777	1475835777462	1475835777563	i	73
282497	3032147	I hope we'll get the game here in Denver.	I hope we'll get the game here in Denver	144022778	1475835777686	1475835777752	n	78
282497	3032147	I hope we'll get the game here in Denver.	I hope we'll get the game here in Denver	144022779	1475835777926	1475835778003	 	32
282497	3032147	I hope we'll get the game here in Denver.	I hope we'll get the game here in Denver	144022791	1475835778543	1475835778846	SHIFT	16
282497	3032147	I hope we'll get the game here in Denver.	I hope we'll get the game here in Denver	144022780	1475835778717	1475835778813	D	68
282497	3032147	I hope we'll get the game here in Denver.	I hope we'll get the game here in Denver	144022793	1475835779565	1475835779695	e	69
282497	3032147	I hope we'll get the game here in Denver.	I hope we'll get the game here in Denver	144022795	1475835779725	1475835779850	n	78
282497	3032147	I hope we'll get the game here in Denver.	I hope we'll get the game here in Denver	144022797	1475835780040	1475835780155	v	86
282497	3032147	I hope we'll get the game here in Denver.	I hope we'll get the game here in Denver	144022799	1475835780177	1475835780321	e	69
282497	3032147	I hope we'll get the game here in Denver.	I hope we'll get the game here in Denver	144022801	1475835780480	1475835780615	r	82
282497	3032151	We haven't made that decision here though.	We haven't made that decision here though.	144022851	1475835783914	1475835784276	SHIFT	16
282497	3032151	We haven't made that decision here though.	We haven't made that decision here though.	144022850	1475835784134	1475835784207	W	87
282497	3032151	We haven't made that decision here though.	We haven't made that decision here though.	144022852	1475835784309	1475835784398	e	69
282497	3032151	We haven't made that decision here though.	We haven't made that decision here though.	144022853	1475835784448	1475835784555	 	32
282497	3032151	We haven't made that decision here though.	We haven't made that decision here though.	144022854	1475835785165	1475835785271	h	72
282497	3032151	We haven't made that decision here though.	We haven't made that decision here though.	144022855	1475835785326	1475835785459	a	65
282497	3032151	We haven't made that decision here though.	We haven't made that decision here though.	144022866	1475835785467	1475835785594	v	86
282497	3032151	We haven't made that decision here though.	We haven't made that decision here though.	144022867	1475835785656	1475835785766	e	69
282497	3032151	We haven't made that decision here though.	We haven't made that decision here though.	144022868	1475835785936	1475835786034	n	78
282497	3032151	We haven't made that decision here though.	We haven't made that decision here though.	144022869	1475835786579	1475835786650	'	222
282497	3032151	We haven't made that decision here though.	We haven't made that decision here though.	144022870	1475835786978	1475835787079	t	84
282497	3032151	We haven't made that decision here though.	We haven't made that decision here though.	144022887	1475835787101	1475835787247	 	32
282497	3032151	We haven't made that decision here though.	We haven't made that decision here though.	144022889	1475835788451	1475835788593	m	77
282497	3032151	We haven't made that decision here though.	We haven't made that decision here though.	144022891	1475835788513	1475835788671	a	65
282497	3032151	We haven't made that decision here though.	We haven't made that decision here though.	144022893	1475835789490	1475835789621	d	68
282497	3032151	We haven't made that decision here though.	We haven't made that decision here though.	144022895	1475835789656	1475835789781	e	69
282497	3032151	We haven't made that decision here though.	We haven't made that decision here though.	144022930	1475835789748	1475835789905	 	32
282497	3032151	We haven't made that decision here though.	We haven't made that decision here though.	144022931	1475835790007	1475835790108	t	84
282497	3032151	We haven't made that decision here though.	We haven't made that decision here though.	144022932	1475835790323	1475835790444	a	65
282497	3032151	We haven't made that decision here though.	We haven't made that decision here though.	144022933	1475835790478	1475835790580	t	84
282497	3032151	We haven't made that decision here though.	We haven't made that decision here though.	144022934	1475835791574	1475835791633	BKSP	8
282497	3032151	We haven't made that decision here though.	We haven't made that decision here though.	144022935	1475835792412	1475835792524	BKSP	8
282497	3032151	We haven't made that decision here though.	We haven't made that decision here though.	144022937	1475835793232	1475835793358	h	72
282497	3032151	We haven't made that decision here though.	We haven't made that decision here though.	144022968	1475835793345	1475835793479	a	65
282497	3032151	We haven't made that decision here though.	We haven't made that decision here though.	144022969	1475835793545	1475835793641	r	82
282497	3032151	We haven't made that decision here though.	We haven't made that decision here though.	144022971	1475835794241	1475835794353	BKSP	8
282497	3032151	We haven't made that decision here though.	We haven't made that decision here though.	144022973	1475835794521	1475835794568	t	84
282497	3032151	We haven't made that decision here though.	We haven't made that decision here though.	144022974	1475835794956	1475835795082	 	32
282497	3032151	We haven't made that decision here though.	We haven't made that decision here though.	144022976	1475835795659	1475835795786	d	68
282497	3032151	We haven't made that decision here though.	We haven't made that decision here though.	144022978	1475835795905	1475835796009	e	69
282497	3032151	We haven't made that decision here though.	We haven't made that decision here though.	144023008	1475835796180	1475835796274	c	67
282497	3032151	We haven't made that decision here though.	We haven't made that decision here though.	144023009	1475835796423	1475835796562	i	73
282497	3032151	We haven't made that decision here though.	We haven't made that decision here though.	144023010	1475835796626	1475835796745	s	83
282497	3032151	We haven't made that decision here though.	We haven't made that decision here though.	144023011	1475835796750	1475835796883	i	73
282497	3032151	We haven't made that decision here though.	We haven't made that decision here though.	144023012	1475835797025	1475835797153	o	79
282497	3032151	We haven't made that decision here though.	We haven't made that decision here though.	144023060	1475835798339	1475835798472	n	78
282497	3032151	We haven't made that decision here though.	We haven't made that decision here though.	144023061	1475835798564	1475835798676	 	32
282497	3032151	We haven't made that decision here though.	We haven't made that decision here though.	144023062	1475835799484	1475835799589	h	72
282497	3032151	We haven't made that decision here though.	We haven't made that decision here though.	144023063	1475835799727	1475835799852	e	69
282497	3032151	We haven't made that decision here though.	We haven't made that decision here though.	144023064	1475835799973	1475835800075	r	82
282497	3032151	We haven't made that decision here though.	We haven't made that decision here though.	144023089	1475835800150	1475835800293	e	69
282497	3032151	We haven't made that decision here though.	We haven't made that decision here though.	144023090	1475835800403	1475835800499	 	32
282497	3032151	We haven't made that decision here though.	We haven't made that decision here though.	144023091	1475835800888	1475835800981	t	84
282497	3032151	We haven't made that decision here though.	We haven't made that decision here though.	144023093	1475835801059	1475835801160	h	72
282497	3032151	We haven't made that decision here though.	We haven't made that decision here though.	144023095	1475835801441	1475835801530	o	79
282497	3032151	We haven't made that decision here though.	We haven't made that decision here though.	144023115	1475835801678	1475835801766	u	85
282497	3032151	We haven't made that decision here though.	We haven't made that decision here though.	144023116	1475835801884	1475835801982	g	71
282497	3032151	We haven't made that decision here though.	We haven't made that decision here though.	144023117	1475835802048	1475835802124	h	72
282497	3032151	We haven't made that decision here though.	We haven't made that decision here though.	144023118	1475835802687	1475835802772	.	190
282497	3032158	Thank you for your support.	Thank you for your support.	144023169	1475835806174	1475835806422	SHIFT	16
282497	3032158	Thank you for your support.	Thank you for your support.	144023170	1475835806380	1475835806486	T	84
282497	3032158	Thank you for your support.	Thank you for your support.	144023171	1475835806813	1475835806936	h	72
282497	3032158	Thank you for your support.	Thank you for your support.	144023172	1475835807569	1475835807731	a	65
282497	3032158	Thank you for your support.	Thank you for your support.	144023173	1475835807791	1475835807910	n	78
282497	3032158	Thank you for your support.	Thank you for your support.	144023174	1475835807990	1475835808096	k	75
282497	3032158	Thank you for your support.	Thank you for your support.	144023224	1475835809059	1475835809187	 	32
282497	3032158	Thank you for your support.	Thank you for your support.	144023226	1475835809881	1475835810034	y	89
282497	3032158	Thank you for your support.	Thank you for your support.	144023230	1475835810042	1475835810175	o	79
282497	3032158	Thank you for your support.	Thank you for your support.	144023231	1475835810334	1475835810441	u	85
282497	3032158	Thank you for your support.	Thank you for your support.	144023232	1475835810469	1475835810612	 	32
282497	3032158	Thank you for your support.	Thank you for your support.	144023243	1475835811226	1475835811370	f	70
282497	3032158	Thank you for your support.	Thank you for your support.	144023244	1475835811549	1475835811686	o	79
282497	3032158	Thank you for your support.	Thank you for your support.	144023245	1475835811671	1475835811795	r	82
282497	3032158	Thank you for your support.	Thank you for your support.	144023246	1475835811790	1475835811911	 	32
282497	3032158	Thank you for your support.	Thank you for your support.	144023247	1475835812219	1475835812328	y	89
282497	3032158	Thank you for your support.	Thank you for your support.	144023269	1475835812638	1475835812702	o	79
282497	3032158	Thank you for your support.	Thank you for your support.	144023273	1475835812854	1475835812953	u	85
282497	3032158	Thank you for your support.	Thank you for your support.	144023277	1475835813054	1475835813164	r	82
282497	3032158	Thank you for your support.	Thank you for your support.	144023281	1475835813149	1475835813279	 	32
282497	3032158	Thank you for your support.	Thank you for your support.	144023285	1475835813629	1475835813772	s	83
282497	3032158	Thank you for your support.	Thank you for your support.	144023302	1475835813785	1475835813886	u	85
282497	3032158	Thank you for your support.	Thank you for your support.	144023303	1475835814196	1475835814259	p	80
282497	3032158	Thank you for your support.	Thank you for your support.	144023304	1475835814314	1475835814408	p	80
282497	3032158	Thank you for your support.	Thank you for your support.	144023305	1475835814470	1475835814592	o	79
282497	3032158	Thank you for your support.	Thank you for your support.	144023306	1475835814836	1475835814967	r	82
282497	3032158	Thank you for your support.	Thank you for your support.	144023324	1475835815167	1475835815320	t	84
282497	3032158	Thank you for your support.	Thank you for your support.	144023325	1475835815926	1475835816020	.	190
282497	3032161	If not can I call you?	If not can I call you?	144023428	1475835820087	1475835820298	SHIFT	16
282497	3032161	If not can I call you?	If not can I call you?	144023429	1475835820225	1475835820336	I	73
282497	3032161	If not can I call you?	If not can I call you?	144023430	1475835820582	1475835820688	f	70
282497	3032161	If not can I call you?	If not can I call you?	144023431	1475835820740	1475835820904	 	32
282497	3032161	If not can I call you?	If not can I call you?	144023432	1475835821075	1475835821175	n	78
282497	3032161	If not can I call you?	If not can I call you?	144023433	1475835822241	1475835822360	o	79
282497	3032161	If not can I call you?	If not can I call you?	144023460	1475835822505	1475835822636	t	84
282497	3032161	If not can I call you?	If not can I call you?	144023461	1475835823461	1475835823591	 	32
282497	3032161	If not can I call you?	If not can I call you?	144023462	1475835824139	1475835824233	c	67
282497	3032161	If not can I call you?	If not can I call you?	144023463	1475835824311	1475835824422	a	65
282497	3032161	If not can I call you?	If not can I call you?	144023464	1475835824861	1475835824954	n	78
282497	3032161	If not can I call you?	If not can I call you?	144023481	1475835825050	1475835825161	 	32
282497	3032161	If not can I call you?	If not can I call you?	144023482	1475835825774	1475835826034	SHIFT	16
282497	3032161	If not can I call you?	If not can I call you?	144023483	1475835825937	1475835826053	I	73
282497	3032161	If not can I call you?	If not can I call you?	144023485	1475835826088	1475835826223	 	32
282497	3032161	If not can I call you?	If not can I call you?	144023489	1475835826681	1475835826782	c	67
282497	3032161	If not can I call you?	If not can I call you?	144023493	1475835826872	1475835827001	a	65
282497	3032161	If not can I call you?	If not can I call you?	144023522	1475835827625	1475835827698	l	76
282497	3032161	If not can I call you?	If not can I call you?	144023524	1475835827771	1475835827854	l	76
282497	3032161	If not can I call you?	If not can I call you?	144023526	1475835828340	1475835828464	 	32
282497	3032161	If not can I call you?	If not can I call you?	144023528	1475835828697	1475835828795	y	89
282497	3032161	If not can I call you?	If not can I call you?	144023530	1475835829117	1475835829215	o	79
282497	3032161	If not can I call you?	If not can I call you?	144023553	1475835829335	1475835829431	u	85
282497	3032161	If not can I call you?	If not can I call you?	144023557	1475835830092	1475835830540	SHIFT	16
282497	3032161	If not can I call you?	If not can I call you?	144023555	1475835830383	1475835830472	?	191
282497	3032167	Contact Lisa Mellencamp on any issues regarding pending litigation.	Contact Lisa Mellencamp on any issues regarding pending litigation	144023656	1475835835807	1475835835980	SHIFT	16
282497	3032167	Contact Lisa Mellencamp on any issues regarding pending litigation.	Contact Lisa Mellencamp on any issues regarding pending litigation	144023658	1475835835879	1475835836008	C	67
282497	3032167	Contact Lisa Mellencamp on any issues regarding pending litigation.	Contact Lisa Mellencamp on any issues regarding pending litigation	144023660	1475835836302	1475835836404	o	79
282497	3032167	Contact Lisa Mellencamp on any issues regarding pending litigation.	Contact Lisa Mellencamp on any issues regarding pending litigation	144023661	1475835836523	1475835836612	n	78
282497	3032167	Contact Lisa Mellencamp on any issues regarding pending litigation.	Contact Lisa Mellencamp on any issues regarding pending litigation	144023662	1475835836818	1475835836915	t	84
282497	3032167	Contact Lisa Mellencamp on any issues regarding pending litigation.	Contact Lisa Mellencamp on any issues regarding pending litigation	144023663	1475835836942	1475835837086	a	65
282497	3032167	Contact Lisa Mellencamp on any issues regarding pending litigation.	Contact Lisa Mellencamp on any issues regarding pending litigation	144023670	1475835837300	1475835837388	c	67
282497	3032167	Contact Lisa Mellencamp on any issues regarding pending litigation.	Contact Lisa Mellencamp on any issues regarding pending litigation	144023671	1475835837509	1475835837606	t	84
282497	3032167	Contact Lisa Mellencamp on any issues regarding pending litigation.	Contact Lisa Mellencamp on any issues regarding pending litigation	144023672	1475835837645	1475835837765	 	32
282497	3032167	Contact Lisa Mellencamp on any issues regarding pending litigation.	Contact Lisa Mellencamp on any issues regarding pending litigation	144023674	1475835838083	1475835838560	SHIFT	16
282497	3032167	Contact Lisa Mellencamp on any issues regarding pending litigation.	Contact Lisa Mellencamp on any issues regarding pending litigation	144023673	1475835838444	1475835838542	L	76
282497	3032167	Contact Lisa Mellencamp on any issues regarding pending litigation.	Contact Lisa Mellencamp on any issues regarding pending litigation	144023675	1475835838678	1475835838776	i	73
282497	3032167	Contact Lisa Mellencamp on any issues regarding pending litigation.	Contact Lisa Mellencamp on any issues regarding pending litigation	144023707	1475835838893	1475835839013	s	83
282497	3032167	Contact Lisa Mellencamp on any issues regarding pending litigation.	Contact Lisa Mellencamp on any issues regarding pending litigation	144023710	1475835839076	1475835839202	a	65
282497	3032167	Contact Lisa Mellencamp on any issues regarding pending litigation.	Contact Lisa Mellencamp on any issues regarding pending litigation	144023713	1475835839224	1475835839321	 	32
282497	3032167	Contact Lisa Mellencamp on any issues regarding pending litigation.	Contact Lisa Mellencamp on any issues regarding pending litigation	144023715	1475835839520	1475835840151	SHIFT	16
282497	3032167	Contact Lisa Mellencamp on any issues regarding pending litigation.	Contact Lisa Mellencamp on any issues regarding pending litigation	144023717	1475835840112	1475835840209	M	77
282497	3032167	Contact Lisa Mellencamp on any issues regarding pending litigation.	Contact Lisa Mellencamp on any issues regarding pending litigation	144023721	1475835840438	1475835840560	e	69
282497	3032167	Contact Lisa Mellencamp on any issues regarding pending litigation.	Contact Lisa Mellencamp on any issues regarding pending litigation	144023743	1475835840742	1475835840831	l	76
282497	3032167	Contact Lisa Mellencamp on any issues regarding pending litigation.	Contact Lisa Mellencamp on any issues regarding pending litigation	144023744	1475835841346	1475835841453	l	76
282497	3032167	Contact Lisa Mellencamp on any issues regarding pending litigation.	Contact Lisa Mellencamp on any issues regarding pending litigation	144023745	1475835842224	1475835842359	e	69
282497	3032167	Contact Lisa Mellencamp on any issues regarding pending litigation.	Contact Lisa Mellencamp on any issues regarding pending litigation	144023746	1475835842442	1475835842553	n	78
282497	3032167	Contact Lisa Mellencamp on any issues regarding pending litigation.	Contact Lisa Mellencamp on any issues regarding pending litigation	144023747	1475835842815	1475835842878	c	67
282497	3032167	Contact Lisa Mellencamp on any issues regarding pending litigation.	Contact Lisa Mellencamp on any issues regarding pending litigation	144023794	1475835843109	1475835843255	a	65
282497	3032167	Contact Lisa Mellencamp on any issues regarding pending litigation.	Contact Lisa Mellencamp on any issues regarding pending litigation	144023795	1475835844514	1475835844602	m	77
282497	3032167	Contact Lisa Mellencamp on any issues regarding pending litigation.	Contact Lisa Mellencamp on any issues regarding pending litigation	144023796	1475835844755	1475835844828	p	80
282497	3032167	Contact Lisa Mellencamp on any issues regarding pending litigation.	Contact Lisa Mellencamp on any issues regarding pending litigation	144023797	1475835845390	1475835845501	 	32
282497	3032167	Contact Lisa Mellencamp on any issues regarding pending litigation.	Contact Lisa Mellencamp on any issues regarding pending litigation	144023798	1475835845809	1475835845904	o	79
282497	3032167	Contact Lisa Mellencamp on any issues regarding pending litigation.	Contact Lisa Mellencamp on any issues regarding pending litigation	144023821	1475835846013	1475835846093	n	78
282497	3032167	Contact Lisa Mellencamp on any issues regarding pending litigation.	Contact Lisa Mellencamp on any issues regarding pending litigation	144023822	1475835846324	1475835846420	 	32
282497	3032167	Contact Lisa Mellencamp on any issues regarding pending litigation.	Contact Lisa Mellencamp on any issues regarding pending litigation	144023823	1475835846483	1475835846611	a	65
282497	3032167	Contact Lisa Mellencamp on any issues regarding pending litigation.	Contact Lisa Mellencamp on any issues regarding pending litigation	144023824	1475835846868	1475835846967	n	78
282497	3032167	Contact Lisa Mellencamp on any issues regarding pending litigation.	Contact Lisa Mellencamp on any issues regarding pending litigation	144023825	1475835847128	1475835847229	y	89
282497	3032167	Contact Lisa Mellencamp on any issues regarding pending litigation.	Contact Lisa Mellencamp on any issues regarding pending litigation	144023848	1475835847292	1475835847409	 	32
282497	3032167	Contact Lisa Mellencamp on any issues regarding pending litigation.	Contact Lisa Mellencamp on any issues regarding pending litigation	144023849	1475835848169	1475835848293	i	73
282497	3032167	Contact Lisa Mellencamp on any issues regarding pending litigation.	Contact Lisa Mellencamp on any issues regarding pending litigation	144023850	1475835848328	1475835848461	s	83
282497	3032167	Contact Lisa Mellencamp on any issues regarding pending litigation.	Contact Lisa Mellencamp on any issues regarding pending litigation	144023851	1475835848504	1475835848630	s	83
282497	3032167	Contact Lisa Mellencamp on any issues regarding pending litigation.	Contact Lisa Mellencamp on any issues regarding pending litigation	144023879	1475835848613	1475835848729	u	85
282497	3032167	Contact Lisa Mellencamp on any issues regarding pending litigation.	Contact Lisa Mellencamp on any issues regarding pending litigation	144023881	1475835849011	1475835849107	s	83
282497	3032167	Contact Lisa Mellencamp on any issues regarding pending litigation.	Contact Lisa Mellencamp on any issues regarding pending litigation	144023883	1475835849070	1475835849159	e	69
282497	3032167	Contact Lisa Mellencamp on any issues regarding pending litigation.	Contact Lisa Mellencamp on any issues regarding pending litigation	144023884	1475835849891	1475835849971	BKSP	8
282497	3032167	Contact Lisa Mellencamp on any issues regarding pending litigation.	Contact Lisa Mellencamp on any issues regarding pending litigation	144023885	1475835850044	1475835850156	BKSP	8
282497	3032167	Contact Lisa Mellencamp on any issues regarding pending litigation.	Contact Lisa Mellencamp on any issues regarding pending litigation	144023886	1475835850168	1475835850282	e	69
282497	3032167	Contact Lisa Mellencamp on any issues regarding pending litigation.	Contact Lisa Mellencamp on any issues regarding pending litigation	144023887	1475835850397	1475835850530	s	83
282497	3032167	Contact Lisa Mellencamp on any issues regarding pending litigation.	Contact Lisa Mellencamp on any issues regarding pending litigation	144023888	1475835850623	1475835850745	 	32
282497	3032167	Contact Lisa Mellencamp on any issues regarding pending litigation.	Contact Lisa Mellencamp on any issues regarding pending litigation	144023909	1475835851265	1475835851393	r	82
282497	3032167	Contact Lisa Mellencamp on any issues regarding pending litigation.	Contact Lisa Mellencamp on any issues regarding pending litigation	144023910	1475835851451	1475835851573	e	69
282497	3032167	Contact Lisa Mellencamp on any issues regarding pending litigation.	Contact Lisa Mellencamp on any issues regarding pending litigation	144023911	1475835851821	1475835851966	g	71
282497	3032167	Contact Lisa Mellencamp on any issues regarding pending litigation.	Contact Lisa Mellencamp on any issues regarding pending litigation	144023912	1475835851936	1475835852087	a	65
282497	3032167	Contact Lisa Mellencamp on any issues regarding pending litigation.	Contact Lisa Mellencamp on any issues regarding pending litigation	144023913	1475835852145	1475835852206	r	82
282497	3032167	Contact Lisa Mellencamp on any issues regarding pending litigation.	Contact Lisa Mellencamp on any issues regarding pending litigation	144023927	1475835852374	1475835852504	d	68
282497	3032167	Contact Lisa Mellencamp on any issues regarding pending litigation.	Contact Lisa Mellencamp on any issues regarding pending litigation	144023929	1475835852748	1475835852844	i	73
282497	3032167	Contact Lisa Mellencamp on any issues regarding pending litigation.	Contact Lisa Mellencamp on any issues regarding pending litigation	144023931	1475835852968	1475835853045	n	78
282497	3032167	Contact Lisa Mellencamp on any issues regarding pending litigation.	Contact Lisa Mellencamp on any issues regarding pending litigation	144023933	1475835853145	1475835853244	g	71
282497	3032167	Contact Lisa Mellencamp on any issues regarding pending litigation.	Contact Lisa Mellencamp on any issues regarding pending litigation	144023935	1475835853336	1475835853439	 	32
282497	3032167	Contact Lisa Mellencamp on any issues regarding pending litigation.	Contact Lisa Mellencamp on any issues regarding pending litigation	144023973	1475835854198	1475835854300	p	80
282497	3032167	Contact Lisa Mellencamp on any issues regarding pending litigation.	Contact Lisa Mellencamp on any issues regarding pending litigation	144023974	1475835854479	1475835854588	e	69
282497	3032167	Contact Lisa Mellencamp on any issues regarding pending litigation.	Contact Lisa Mellencamp on any issues regarding pending litigation	144023975	1475835854695	1475835854779	n	78
282497	3032167	Contact Lisa Mellencamp on any issues regarding pending litigation.	Contact Lisa Mellencamp on any issues regarding pending litigation	144023976	1475835855072	1475835855183	d	68
282497	3032167	Contact Lisa Mellencamp on any issues regarding pending litigation.	Contact Lisa Mellencamp on any issues regarding pending litigation	144023977	1475835855202	1475835855304	i	73
282497	3032167	Contact Lisa Mellencamp on any issues regarding pending litigation.	Contact Lisa Mellencamp on any issues regarding pending litigation	144023995	1475835855422	1475835855498	n	78
282497	3032167	Contact Lisa Mellencamp on any issues regarding pending litigation.	Contact Lisa Mellencamp on any issues regarding pending litigation	144023996	1475835855618	1475835855708	g	71
282497	3032167	Contact Lisa Mellencamp on any issues regarding pending litigation.	Contact Lisa Mellencamp on any issues regarding pending litigation	144023997	1475835855808	1475835855917	 	32
282497	3032167	Contact Lisa Mellencamp on any issues regarding pending litigation.	Contact Lisa Mellencamp on any issues regarding pending litigation	144023998	1475835856693	1475835856773	l	76
282497	3032167	Contact Lisa Mellencamp on any issues regarding pending litigation.	Contact Lisa Mellencamp on any issues regarding pending litigation	144023999	1475835856871	1475835856962	i	73
282497	3032167	Contact Lisa Mellencamp on any issues regarding pending litigation.	Contact Lisa Mellencamp on any issues regarding pending litigation	144024005	1475835857247	1475835857328	t	84
282497	3032167	Contact Lisa Mellencamp on any issues regarding pending litigation.	Contact Lisa Mellencamp on any issues regarding pending litigation	144024006	1475835857642	1475835857708	i	73
282497	3032167	Contact Lisa Mellencamp on any issues regarding pending litigation.	Contact Lisa Mellencamp on any issues regarding pending litigation	144024007	1475835857897	1475835857997	g	71
282497	3032167	Contact Lisa Mellencamp on any issues regarding pending litigation.	Contact Lisa Mellencamp on any issues regarding pending litigation	144024008	1475835858050	1475835858175	a	65
282497	3032167	Contact Lisa Mellencamp on any issues regarding pending litigation.	Contact Lisa Mellencamp on any issues regarding pending litigation	144024040	1475835858168	1475835858261	t	84
282497	3032167	Contact Lisa Mellencamp on any issues regarding pending litigation.	Contact Lisa Mellencamp on any issues regarding pending litigation	144024042	1475835858583	1475835858652	i	73
282497	3032167	Contact Lisa Mellencamp on any issues regarding pending litigation.	Contact Lisa Mellencamp on any issues regarding pending litigation	144024044	1475835858728	1475835858803	o	79
282497	3032167	Contact Lisa Mellencamp on any issues regarding pending litigation.	Contact Lisa Mellencamp on any issues regarding pending litigation	144024046	1475835858900	1475835858976	n	78
282497	3032178	I just had my head in the clouds.	I just had my head in the clouds.	144024109	1475835862770	1475835862970	SHIFT	16
282497	3032178	I just had my head in the clouds.	I just had my head in the clouds.	144024110	1475835862891	1475835863022	I	73
282497	3032178	I just had my head in the clouds.	I just had my head in the clouds.	144024111	1475835863045	1475835863180	 	32
282497	3032178	I just had my head in the clouds.	I just had my head in the clouds.	144024112	1475835863289	1475835863343	h	72
282497	3032178	I just had my head in the clouds.	I just had my head in the clouds.	144024113	1475835863453	1475835863557	u	85
282497	3032178	I just had my head in the clouds.	I just had my head in the clouds.	144024114	1475835863753	1475835863886	s	83
282497	3032178	I just had my head in the clouds.	I just had my head in the clouds.	144024173	1475835863873	1475835864009	t	84
282497	3032178	I just had my head in the clouds.	I just had my head in the clouds.	144024174	1475835864478	1475835864575	BKSP	8
282497	3032178	I just had my head in the clouds.	I just had my head in the clouds.	144024175	1475835864640	1475835864714	BKSP	8
282497	3032178	I just had my head in the clouds.	I just had my head in the clouds.	144024176	1475835864871	1475835864962	BKSP	8
282497	3032178	I just had my head in the clouds.	I just had my head in the clouds.	144024177	1475835865094	1475835865171	BKSP	8
282497	3032178	I just had my head in the clouds.	I just had my head in the clouds.	144024179	1475835865728	1475835865812	j	74
282497	3032178	I just had my head in the clouds.	I just had my head in the clouds.	144024181	1475835865890	1475835865997	u	85
282497	3032178	I just had my head in the clouds.	I just had my head in the clouds.	144024183	1475835866001	1475835866143	s	83
282497	3032178	I just had my head in the clouds.	I just had my head in the clouds.	144024185	1475835867025	1475835867136	t	84
282497	3032178	I just had my head in the clouds.	I just had my head in the clouds.	144024189	1475835867163	1475835867296	 	32
282497	3032178	I just had my head in the clouds.	I just had my head in the clouds.	144024207	1475835867679	1475835867804	h	72
282497	3032178	I just had my head in the clouds.	I just had my head in the clouds.	144024209	1475835867796	1475835867914	a	65
282497	3032178	I just had my head in the clouds.	I just had my head in the clouds.	144024211	1475835868024	1475835868152	d	68
282497	3032178	I just had my head in the clouds.	I just had my head in the clouds.	144024212	1475835868173	1475835868292	 	32
282497	3032178	I just had my head in the clouds.	I just had my head in the clouds.	144024213	1475835868726	1475835868819	m	77
282497	3032178	I just had my head in the clouds.	I just had my head in the clouds.	144024231	1475835869042	1475835869161	y	89
282497	3032178	I just had my head in the clouds.	I just had my head in the clouds.	144024234	1475835869170	1475835869308	 	32
282497	3032178	I just had my head in the clouds.	I just had my head in the clouds.	144024237	1475835869362	1475835869476	h	72
282497	3032178	I just had my head in the clouds.	I just had my head in the clouds.	144024240	1475835869588	1475835869672	e	69
282497	3032178	I just had my head in the clouds.	I just had my head in the clouds.	144024243	1475835869827	1475835869964	a	65
282497	3032178	I just had my head in the clouds.	I just had my head in the clouds.	144024263	1475835870100	1475835870229	d	68
282497	3032178	I just had my head in the clouds.	I just had my head in the clouds.	144024265	1475835870240	1475835870363	 	32
282497	3032178	I just had my head in the clouds.	I just had my head in the clouds.	144024267	1475835870834	1475835870913	i	73
282497	3032178	I just had my head in the clouds.	I just had my head in the clouds.	144024268	1475835871052	1475835871121	n	78
282497	3032178	I just had my head in the clouds.	I just had my head in the clouds.	144024269	1475835871224	1475835871344	 	32
282497	3032178	I just had my head in the clouds.	I just had my head in the clouds.	144024289	1475835871459	1475835871536	t	84
282497	3032178	I just had my head in the clouds.	I just had my head in the clouds.	144024294	1475835871655	1475835871816	h	72
282497	3032178	I just had my head in the clouds.	I just had my head in the clouds.	144024297	1475835871872	1475835872001	e	69
282497	3032178	I just had my head in the clouds.	I just had my head in the clouds.	144024299	1475835872034	1475835872128	 	32
282497	3032178	I just had my head in the clouds.	I just had my head in the clouds.	144024301	1475835872440	1475835872572	c	67
282497	3032178	I just had my head in the clouds.	I just had my head in the clouds.	144024328	1475835872721	1475835872822	l	76
282497	3032178	I just had my head in the clouds.	I just had my head in the clouds.	144024330	1475835872903	1475835872999	o	79
282497	3032178	I just had my head in the clouds.	I just had my head in the clouds.	144024331	1475835873297	1475835873393	u	85
282497	3032178	I just had my head in the clouds.	I just had my head in the clouds.	144024332	1475835873675	1475835873792	d	68
282497	3032178	I just had my head in the clouds.	I just had my head in the clouds.	144024333	1475835873863	1475835873979	s	83
282497	3032178	I just had my head in the clouds.	I just had my head in the clouds.	144024341	1475835874286	1475835874374	.	190
282497	3032185	However, he warrants no real Fantasy consideration at this point.	However, he warrants no real Fantasy consideration at this point.	144024440	1475835878666	1475835878995	SHIFT	16
282497	3032185	However, he warrants no real Fantasy consideration at this point.	However, he warrants no real Fantasy consideration at this point.	144024439	1475835878867	1475835878955	H	72
282497	3032185	However, he warrants no real Fantasy consideration at this point.	However, he warrants no real Fantasy consideration at this point.	144024441	1475835879152	1475835879241	o	79
282497	3032185	However, he warrants no real Fantasy consideration at this point.	However, he warrants no real Fantasy consideration at this point.	144024442	1475835879407	1475835879536	w	87
282497	3032185	However, he warrants no real Fantasy consideration at this point.	However, he warrants no real Fantasy consideration at this point.	144024443	1475835879660	1475835879703	e	69
282497	3032185	However, he warrants no real Fantasy consideration at this point.	However, he warrants no real Fantasy consideration at this point.	144024444	1475835880725	1475835880858	v	86
282497	3032185	However, he warrants no real Fantasy consideration at this point.	However, he warrants no real Fantasy consideration at this point.	144024458	1475835880875	1475835881010	e	69
282497	3032185	However, he warrants no real Fantasy consideration at this point.	However, he warrants no real Fantasy consideration at this point.	144024460	1475835881301	1475835881394	r	82
282497	3032185	However, he warrants no real Fantasy consideration at this point.	However, he warrants no real Fantasy consideration at this point.	144024464	1475835881915	1475835882020	,	188
282497	3032185	However, he warrants no real Fantasy consideration at this point.	However, he warrants no real Fantasy consideration at this point.	144024467	1475835882151	1475835882249	 	32
282497	3032185	However, he warrants no real Fantasy consideration at this point.	However, he warrants no real Fantasy consideration at this point.	144024470	1475835882417	1475835882554	h	72
282497	3032185	However, he warrants no real Fantasy consideration at this point.	However, he warrants no real Fantasy consideration at this point.	144024490	1475835882600	1475835882734	e	69
282497	3032185	However, he warrants no real Fantasy consideration at this point.	However, he warrants no real Fantasy consideration at this point.	144024492	1475835882728	1475835882862	 	32
282497	3032185	However, he warrants no real Fantasy consideration at this point.	However, he warrants no real Fantasy consideration at this point.	144024493	1475835882851	1475835882973	w	87
282497	3032185	However, he warrants no real Fantasy consideration at this point.	However, he warrants no real Fantasy consideration at this point.	144024494	1475835883094	1475835883194	a	65
282497	3032185	However, he warrants no real Fantasy consideration at this point.	However, he warrants no real Fantasy consideration at this point.	144024495	1475835883652	1475835883733	r	82
282497	3032185	However, he warrants no real Fantasy consideration at this point.	However, he warrants no real Fantasy consideration at this point.	144024512	1475835883785	1475835883887	r	82
282497	3032185	However, he warrants no real Fantasy consideration at this point.	However, he warrants no real Fantasy consideration at this point.	144024513	1475835884075	1475835884205	a	65
282497	3032185	However, he warrants no real Fantasy consideration at this point.	However, he warrants no real Fantasy consideration at this point.	144024514	1475835884334	1475835884421	n	78
282497	3032185	However, he warrants no real Fantasy consideration at this point.	However, he warrants no real Fantasy consideration at this point.	144024515	1475835884916	1475835885025	t	84
282497	3032185	However, he warrants no real Fantasy consideration at this point.	However, he warrants no real Fantasy consideration at this point.	144024516	1475835885055	1475835885167	s	83
282497	3032185	However, he warrants no real Fantasy consideration at this point.	However, he warrants no real Fantasy consideration at this point.	144024558	1475835885713	1475835885817	 	32
282497	3032185	However, he warrants no real Fantasy consideration at this point.	However, he warrants no real Fantasy consideration at this point.	144024559	1475835886331	1475835886423	n	78
282497	3032185	However, he warrants no real Fantasy consideration at this point.	However, he warrants no real Fantasy consideration at this point.	144024560	1475835886736	1475835886827	o	79
282497	3032185	However, he warrants no real Fantasy consideration at this point.	However, he warrants no real Fantasy consideration at this point.	144024561	1475835886868	1475835887001	 	32
282497	3032185	However, he warrants no real Fantasy consideration at this point.	However, he warrants no real Fantasy consideration at this point.	144024562	1475835887131	1475835887261	r	82
282497	3032185	However, he warrants no real Fantasy consideration at this point.	However, he warrants no real Fantasy consideration at this point.	144024592	1475835887303	1475835887412	e	69
282497	3032185	However, he warrants no real Fantasy consideration at this point.	However, he warrants no real Fantasy consideration at this point.	144024593	1475835887565	1475835887700	a	65
282497	3032185	However, he warrants no real Fantasy consideration at this point.	However, he warrants no real Fantasy consideration at this point.	144024594	1475835888242	1475835888373	l	76
282497	3032185	However, he warrants no real Fantasy consideration at this point.	However, he warrants no real Fantasy consideration at this point.	144024596	1475835888595	1475835888691	 	32
282497	3032185	However, he warrants no real Fantasy consideration at this point.	However, he warrants no real Fantasy consideration at this point.	144024598	1475835889232	1475835889451	SHIFT	16
282497	3032185	However, he warrants no real Fantasy consideration at this point.	However, he warrants no real Fantasy consideration at this point.	144024638	1475835889351	1475835889459	F	70
282497	3032185	However, he warrants no real Fantasy consideration at this point.	However, he warrants no real Fantasy consideration at this point.	144024642	1475835889635	1475835889792	a	65
282497	3032185	However, he warrants no real Fantasy consideration at this point.	However, he warrants no real Fantasy consideration at this point.	144024646	1475835889844	1475835889938	n	78
282497	3032185	However, he warrants no real Fantasy consideration at this point.	However, he warrants no real Fantasy consideration at this point.	144024649	1475835890539	1475835890637	t	84
282497	3032185	However, he warrants no real Fantasy consideration at this point.	However, he warrants no real Fantasy consideration at this point.	144024651	1475835890745	1475835890861	a	65
282497	3032185	However, he warrants no real Fantasy consideration at this point.	However, he warrants no real Fantasy consideration at this point.	144024653	1475835890986	1475835891102	s	83
282497	3032185	However, he warrants no real Fantasy consideration at this point.	However, he warrants no real Fantasy consideration at this point.	144024702	1475835891331	1475835891427	y	89
282497	3032185	However, he warrants no real Fantasy consideration at this point.	However, he warrants no real Fantasy consideration at this point.	144024703	1475835891442	1475835891575	 	32
282497	3032185	However, he warrants no real Fantasy consideration at this point.	However, he warrants no real Fantasy consideration at this point.	144024704	1475835892430	1475835892543	c	67
282497	3032185	However, he warrants no real Fantasy consideration at this point.	However, he warrants no real Fantasy consideration at this point.	144024705	1475835892643	1475835892714	i	73
282497	3032185	However, he warrants no real Fantasy consideration at this point.	However, he warrants no real Fantasy consideration at this point.	144024706	1475835893224	1475835893305	BKSP	8
282497	3032185	However, he warrants no real Fantasy consideration at this point.	However, he warrants no real Fantasy consideration at this point.	144024707	1475835893518	1475835893643	o	79
282497	3032185	However, he warrants no real Fantasy consideration at this point.	However, he warrants no real Fantasy consideration at this point.	144024757	1475835893930	1475835894022	n	78
282497	3032185	However, he warrants no real Fantasy consideration at this point.	However, he warrants no real Fantasy consideration at this point.	144024758	1475835894794	1475835894937	s	83
282497	3032185	However, he warrants no real Fantasy consideration at this point.	However, he warrants no real Fantasy consideration at this point.	144024759	1475835894956	1475835895033	i	73
282497	3032185	However, he warrants no real Fantasy consideration at this point.	However, he warrants no real Fantasy consideration at this point.	144024760	1475835895176	1475835895269	d	68
282497	3032185	However, he warrants no real Fantasy consideration at this point.	However, he warrants no real Fantasy consideration at this point.	144024761	1475835895903	1475835896008	e	69
282497	3032185	However, he warrants no real Fantasy consideration at this point.	However, he warrants no real Fantasy consideration at this point.	144024799	1475835896106	1475835896208	r	82
282497	3032185	However, he warrants no real Fantasy consideration at this point.	However, he warrants no real Fantasy consideration at this point.	144024800	1475835896664	1475835896789	a	65
282497	3032185	However, he warrants no real Fantasy consideration at this point.	However, he warrants no real Fantasy consideration at this point.	144024801	1475835896851	1475835896952	t	84
282497	3032185	However, he warrants no real Fantasy consideration at this point.	However, he warrants no real Fantasy consideration at this point.	144024802	1475835897308	1475835897400	i	73
282497	3032185	However, he warrants no real Fantasy consideration at this point.	However, he warrants no real Fantasy consideration at this point.	144024803	1475835897486	1475835897563	o	79
282497	3032185	However, he warrants no real Fantasy consideration at this point.	However, he warrants no real Fantasy consideration at this point.	144024858	1475835898220	1475835898306	n	78
282497	3032185	However, he warrants no real Fantasy consideration at this point.	However, he warrants no real Fantasy consideration at this point.	144024860	1475835898852	1475835898974	 	32
282497	3032185	However, he warrants no real Fantasy consideration at this point.	However, he warrants no real Fantasy consideration at this point.	144024864	1475835899193	1475835899347	a	65
282497	3032185	However, he warrants no real Fantasy consideration at this point.	However, he warrants no real Fantasy consideration at this point.	144024867	1475835899409	1475835899531	t	84
282497	3032185	However, he warrants no real Fantasy consideration at this point.	However, he warrants no real Fantasy consideration at this point.	144024870	1475835899541	1475835899677	 	32
282497	3032185	However, he warrants no real Fantasy consideration at this point.	However, he warrants no real Fantasy consideration at this point.	144024896	1475835899737	1475835899859	t	84
282497	3032185	However, he warrants no real Fantasy consideration at this point.	However, he warrants no real Fantasy consideration at this point.	144024897	1475835899972	1475835900034	h	72
282497	3032185	However, he warrants no real Fantasy consideration at this point.	However, he warrants no real Fantasy consideration at this point.	144024899	1475835900701	1475835900820	i	73
282497	3032185	However, he warrants no real Fantasy consideration at this point.	However, he warrants no real Fantasy consideration at this point.	144024901	1475835900885	1475835901019	s	83
282497	3032185	However, he warrants no real Fantasy consideration at this point.	However, he warrants no real Fantasy consideration at this point.	144024943	1475835900976	1475835901093	 	32
282497	3032185	However, he warrants no real Fantasy consideration at this point.	However, he warrants no real Fantasy consideration at this point.	144024944	1475835901324	1475835901416	p	80
282497	3032185	However, he warrants no real Fantasy consideration at this point.	However, he warrants no real Fantasy consideration at this point.	144024945	1475835901498	1475835901590	o	79
282497	3032185	However, he warrants no real Fantasy consideration at this point.	However, he warrants no real Fantasy consideration at this point.	144024946	1475835901674	1475835901771	i	73
282497	3032185	However, he warrants no real Fantasy consideration at this point.	However, he warrants no real Fantasy consideration at this point.	144024947	1475835903036	1475835903148	n	78
282497	3032185	However, he warrants no real Fantasy consideration at this point.	However, he warrants no real Fantasy consideration at this point.	144024948	1475835903251	1475835903334	t	84
282497	3032185	However, he warrants no real Fantasy consideration at this point.	However, he warrants no real Fantasy consideration at this point.	144024983	1475835904062	1475835904136	.	190
