PARTICIPANT_ID	TEST_SECTION_ID	SENTENCE	USER_INPUT	KEYSTROKE_ID	PRESS_TIME	RELEASE_TIME	LETTER	KEYCODE
301748	3246264	Be back tomorrow and maybe we can visit.	Be back tomorrow and maybe we can visit.	154254531	1476019200647	1476019201338	SHIFT	16
301748	3246264	Be back tomorrow and maybe we can visit.	Be back tomorrow and maybe we can visit.	154254533	1476019202466	1476019202865	SHIFT	16
301748	3246264	Be back tomorrow and maybe we can visit.	Be back tomorrow and maybe we can visit.	154254532	1476019202701	1476019202818	B	66
301748	3246264	Be back tomorrow and maybe we can visit.	Be back tomorrow and maybe we can visit.	154254534	1476019203293	1476019203407	e	69
301748	3246264	Be back tomorrow and maybe we can visit.	Be back tomorrow and maybe we can visit.	154254535	1476019203516	1476019203670	 	32
301748	3246264	Be back tomorrow and maybe we can visit.	Be back tomorrow and maybe we can visit.	154254537	1476019203748	1476019203884	b	66
301748	3246264	Be back tomorrow and maybe we can visit.	Be back tomorrow and maybe we can visit.	154254545	1476019203884	1476019204004	a	65
301748	3246264	Be back tomorrow and maybe we can visit.	Be back tomorrow and maybe we can visit.	154254829	1476019205027	1476019205157	c	67
301748	3246264	Be back tomorrow and maybe we can visit.	Be back tomorrow and maybe we can visit.	154254831	1476019205219	1476019205334	k	75
301748	3246264	Be back tomorrow and maybe we can visit.	Be back tomorrow and maybe we can visit.	154254833	1476019205568	1476019205701	 	32
301748	3246264	Be back tomorrow and maybe we can visit.	Be back tomorrow and maybe we can visit.	154254837	1476019205920	1476019206018	o	79
301748	3246264	Be back tomorrow and maybe we can visit.	Be back tomorrow and maybe we can visit.	154254841	1476019206489	1476019206574	BKSP	8
301748	3246264	Be back tomorrow and maybe we can visit.	Be back tomorrow and maybe we can visit.	154254844	1476019208331	1476019208452	t	84
301748	3246264	Be back tomorrow and maybe we can visit.	Be back tomorrow and maybe we can visit.	154254893	1476019208483	1476019208586	o	79
301748	3246264	Be back tomorrow and maybe we can visit.	Be back tomorrow and maybe we can visit.	154254895	1476019208726	1476019208840	m	77
301748	3246264	Be back tomorrow and maybe we can visit.	Be back tomorrow and maybe we can visit.	154254899	1476019209074	1476019209200	o	79
301748	3246264	Be back tomorrow and maybe we can visit.	Be back tomorrow and maybe we can visit.	154254902	1476019209450	1476019209552	r	82
301748	3246264	Be back tomorrow and maybe we can visit.	Be back tomorrow and maybe we can visit.	154254905	1476019209664	1476019209788	r	82
301748	3246264	Be back tomorrow and maybe we can visit.	Be back tomorrow and maybe we can visit.	154254944	1476019209742	1476019209864	o	79
301748	3246264	Be back tomorrow and maybe we can visit.	Be back tomorrow and maybe we can visit.	154254946	1476019209895	1476019210049	w	87
301748	3246264	Be back tomorrow and maybe we can visit.	Be back tomorrow and maybe we can visit.	154254949	1476019210049	1476019210169	 	32
301748	3246264	Be back tomorrow and maybe we can visit.	Be back tomorrow and maybe we can visit.	154254952	1476019210294	1476019210458	a	65
301748	3246264	Be back tomorrow and maybe we can visit.	Be back tomorrow and maybe we can visit.	154254954	1476019210450	1476019210508	n	78
301748	3246264	Be back tomorrow and maybe we can visit.	Be back tomorrow and maybe we can visit.	154254956	1476019210555	1476019210758	d	68
301748	3246264	Be back tomorrow and maybe we can visit.	Be back tomorrow and maybe we can visit.	154255097	1476019210684	1476019210802	 	32
301748	3246264	Be back tomorrow and maybe we can visit.	Be back tomorrow and maybe we can visit.	154255099	1476019211852	1476019211966	m	77
301748	3246264	Be back tomorrow and maybe we can visit.	Be back tomorrow and maybe we can visit.	154255101	1476019212373	1476019212560	a	65
301748	3246264	Be back tomorrow and maybe we can visit.	Be back tomorrow and maybe we can visit.	154255103	1476019212701	1476019212802	y	89
301748	3246264	Be back tomorrow and maybe we can visit.	Be back tomorrow and maybe we can visit.	154255109	1476019213115	1476019213235	b	66
301748	3246264	Be back tomorrow and maybe we can visit.	Be back tomorrow and maybe we can visit.	154255115	1476019213360	1476019213487	e	69
301748	3246264	Be back tomorrow and maybe we can visit.	Be back tomorrow and maybe we can visit.	154255142	1476019213535	1476019213725	 	32
301748	3246264	Be back tomorrow and maybe we can visit.	Be back tomorrow and maybe we can visit.	154255145	1476019213687	1476019213917	w	87
301748	3246264	Be back tomorrow and maybe we can visit.	Be back tomorrow and maybe we can visit.	154255148	1476019213784	1476019213917	e	69
301748	3246264	Be back tomorrow and maybe we can visit.	Be back tomorrow and maybe we can visit.	154255151	1476019214057	1476019214148	 	32
301748	3246264	Be back tomorrow and maybe we can visit.	Be back tomorrow and maybe we can visit.	154255153	1476019214259	1476019214434	c	67
301748	3246264	Be back tomorrow and maybe we can visit.	Be back tomorrow and maybe we can visit.	154255222	1476019214466	1476019214539	a	65
301748	3246264	Be back tomorrow and maybe we can visit.	Be back tomorrow and maybe we can visit.	154255226	1476019214856	1476019215006	n	78
301748	3246264	Be back tomorrow and maybe we can visit.	Be back tomorrow and maybe we can visit.	154255229	1476019215052	1476019215229	 	32
301748	3246264	Be back tomorrow and maybe we can visit.	Be back tomorrow and maybe we can visit.	154255232	1476019215763	1476019215922	v	86
301748	3246264	Be back tomorrow and maybe we can visit.	Be back tomorrow and maybe we can visit.	154255234	1476019215937	1476019216065	i	73
301748	3246264	Be back tomorrow and maybe we can visit.	Be back tomorrow and maybe we can visit.	154255311	1476019216096	1476019216218	s	83
301748	3246264	Be back tomorrow and maybe we can visit.	Be back tomorrow and maybe we can visit.	154255313	1476019216818	1476019216923	i	73
301748	3246264	Be back tomorrow and maybe we can visit.	Be back tomorrow and maybe we can visit.	154255316	1476019216969	1476019217070	t	84
301748	3246264	Be back tomorrow and maybe we can visit.	Be back tomorrow and maybe we can visit.	154255321	1476019217273	1476019217422	.	190
301748	3246296	Britain earlier organised an evacuation of non-Britons from Sanaa.	Britain earlier organised an evacuation of non-Britons from Sanaa.	154255934	1476019229602	1476019230267	SHIFT	16
301748	3246296	Britain earlier organised an evacuation of non-Britons from Sanaa.	Britain earlier organised an evacuation of non-Britons from Sanaa.	154255931	1476019230072	1476019230236	B	66
301748	3246296	Britain earlier organised an evacuation of non-Britons from Sanaa.	Britain earlier organised an evacuation of non-Britons from Sanaa.	154255940	1476019230815	1476019230934	r	82
301748	3246296	Britain earlier organised an evacuation of non-Britons from Sanaa.	Britain earlier organised an evacuation of non-Britons from Sanaa.	154255945	1476019230966	1476019231070	i	73
301748	3246296	Britain earlier organised an evacuation of non-Britons from Sanaa.	Britain earlier organised an evacuation of non-Britons from Sanaa.	154255948	1476019231195	1476019231441	t	84
301748	3246296	Britain earlier organised an evacuation of non-Britons from Sanaa.	Britain earlier organised an evacuation of non-Britons from Sanaa.	154255992	1476019231338	1476019231524	a	65
301748	3246296	Britain earlier organised an evacuation of non-Britons from Sanaa.	Britain earlier organised an evacuation of non-Britons from Sanaa.	154255996	1476019231473	1476019231591	i	73
301748	3246296	Britain earlier organised an evacuation of non-Britons from Sanaa.	Britain earlier organised an evacuation of non-Britons from Sanaa.	154256000	1476019231716	1476019231819	n	78
301748	3246296	Britain earlier organised an evacuation of non-Britons from Sanaa.	Britain earlier organised an evacuation of non-Britons from Sanaa.	154256004	1476019232325	1476019232454	 	32
301748	3246296	Britain earlier organised an evacuation of non-Britons from Sanaa.	Britain earlier organised an evacuation of non-Britons from Sanaa.	154256009	1476019232532	1476019232691	e	69
301748	3246296	Britain earlier organised an evacuation of non-Britons from Sanaa.	Britain earlier organised an evacuation of non-Britons from Sanaa.	154256051	1476019232625	1476019232817	a	65
301748	3246296	Britain earlier organised an evacuation of non-Britons from Sanaa.	Britain earlier organised an evacuation of non-Britons from Sanaa.	154256056	1476019233036	1476019233189	r	82
301748	3246296	Britain earlier organised an evacuation of non-Britons from Sanaa.	Britain earlier organised an evacuation of non-Britons from Sanaa.	154256059	1476019233133	1476019233205	l	76
301748	3246296	Britain earlier organised an evacuation of non-Britons from Sanaa.	Britain earlier organised an evacuation of non-Britons from Sanaa.	154256065	1476019233299	1476019233387	i	73
301748	3246296	Britain earlier organised an evacuation of non-Britons from Sanaa.	Britain earlier organised an evacuation of non-Britons from Sanaa.	154256071	1476019233403	1476019233574	e	69
301748	3246296	Britain earlier organised an evacuation of non-Britons from Sanaa.	Britain earlier organised an evacuation of non-Britons from Sanaa.	154256154	1476019233517	1476019233666	r	82
301748	3246296	Britain earlier organised an evacuation of non-Britons from Sanaa.	Britain earlier organised an evacuation of non-Britons from Sanaa.	154256157	1476019233838	1476019233967	 	32
301748	3246296	Britain earlier organised an evacuation of non-Britons from Sanaa.	Britain earlier organised an evacuation of non-Britons from Sanaa.	154256161	1476019234061	1476019234187	o	79
301748	3246296	Britain earlier organised an evacuation of non-Britons from Sanaa.	Britain earlier organised an evacuation of non-Britons from Sanaa.	154256164	1476019234187	1476019234271	r	82
301748	3246296	Britain earlier organised an evacuation of non-Britons from Sanaa.	Britain earlier organised an evacuation of non-Britons from Sanaa.	154256166	1476019234430	1476019234685	g	71
301748	3246296	Britain earlier organised an evacuation of non-Britons from Sanaa.	Britain earlier organised an evacuation of non-Britons from Sanaa.	154256298	1476019234583	1476019234752	a	65
301748	3246296	Britain earlier organised an evacuation of non-Britons from Sanaa.	Britain earlier organised an evacuation of non-Britons from Sanaa.	154256302	1476019235064	1476019235169	n	78
301748	3246296	Britain earlier organised an evacuation of non-Britons from Sanaa.	Britain earlier organised an evacuation of non-Britons from Sanaa.	154256307	1476019235294	1476019235357	i	73
301748	3246296	Britain earlier organised an evacuation of non-Britons from Sanaa.	Britain earlier organised an evacuation of non-Britons from Sanaa.	154256312	1476019236203	1476019236316	s	83
301748	3246296	Britain earlier organised an evacuation of non-Britons from Sanaa.	Britain earlier organised an evacuation of non-Britons from Sanaa.	154256316	1476019236394	1476019236522	e	69
301748	3246296	Britain earlier organised an evacuation of non-Britons from Sanaa.	Britain earlier organised an evacuation of non-Britons from Sanaa.	154256319	1476019236647	1476019236814	d	68
301748	3246296	Britain earlier organised an evacuation of non-Britons from Sanaa.	Britain earlier organised an evacuation of non-Britons from Sanaa.	154256472	1476019236940	1476019237070	 	32
301748	3246296	Britain earlier organised an evacuation of non-Britons from Sanaa.	Britain earlier organised an evacuation of non-Britons from Sanaa.	154256475	1476019237101	1476019237216	a	65
301748	3246296	Britain earlier organised an evacuation of non-Britons from Sanaa.	Britain earlier organised an evacuation of non-Britons from Sanaa.	154256477	1476019237216	1476019237316	n	78
301748	3246296	Britain earlier organised an evacuation of non-Britons from Sanaa.	Britain earlier organised an evacuation of non-Britons from Sanaa.	154256479	1476019237444	1476019237572	 	32
301748	3246296	Britain earlier organised an evacuation of non-Britons from Sanaa.	Britain earlier organised an evacuation of non-Britons from Sanaa.	154256481	1476019238944	1476019238996	e	69
301748	3246296	Britain earlier organised an evacuation of non-Britons from Sanaa.	Britain earlier organised an evacuation of non-Britons from Sanaa.	154256538	1476019239176	1476019239562	v	86
301748	3246296	Britain earlier organised an evacuation of non-Britons from Sanaa.	Britain earlier organised an evacuation of non-Britons from Sanaa.	154256540	1476019239720	1476019239888	c	67
301748	3246296	Britain earlier organised an evacuation of non-Britons from Sanaa.	Britain earlier organised an evacuation of non-Britons from Sanaa.	154256545	1476019240102	1476019240284	u	85
301748	3246296	Britain earlier organised an evacuation of non-Britons from Sanaa.	Britain earlier organised an evacuation of non-Britons from Sanaa.	154256549	1476019240712	1476019240864	a	65
301748	3246296	Britain earlier organised an evacuation of non-Britons from Sanaa.	Britain earlier organised an evacuation of non-Britons from Sanaa.	154256553	1476019241083	1476019241250	t	84
301748	3246296	Britain earlier organised an evacuation of non-Britons from Sanaa.	Britain earlier organised an evacuation of non-Britons from Sanaa.	154256586	1476019241281	1476019241561	i	73
301748	3246296	Britain earlier organised an evacuation of non-Britons from Sanaa.	Britain earlier organised an evacuation of non-Britons from Sanaa.	154256582	1476019241368	1476019241553	o	79
301748	3246296	Britain earlier organised an evacuation of non-Britons from Sanaa.	Britain earlier organised an evacuation of non-Britons from Sanaa.	154256590	1476019241512	1476019241607	n	78
301748	3246296	Britain earlier organised an evacuation of non-Britons from Sanaa.	Britain earlier organised an evacuation of non-Britons from Sanaa.	154256593	1476019241748	1476019241853	 	32
301748	3246296	Britain earlier organised an evacuation of non-Britons from Sanaa.	Britain earlier organised an evacuation of non-Britons from Sanaa.	154256596	1476019241900	1476019242004	o	79
301748	3246296	Britain earlier organised an evacuation of non-Britons from Sanaa.	Britain earlier organised an evacuation of non-Britons from Sanaa.	154256615	1476019242035	1476019242241	f	70
301748	3246296	Britain earlier organised an evacuation of non-Britons from Sanaa.	Britain earlier organised an evacuation of non-Britons from Sanaa.	154256618	1476019242174	1476019242257	 	32
301748	3246296	Britain earlier organised an evacuation of non-Britons from Sanaa.	Britain earlier organised an evacuation of non-Britons from Sanaa.	154256621	1476019242522	1476019242655	n	78
301748	3246296	Britain earlier organised an evacuation of non-Britons from Sanaa.	Britain earlier organised an evacuation of non-Britons from Sanaa.	154256625	1476019242655	1476019242787	o	79
301748	3246296	Britain earlier organised an evacuation of non-Britons from Sanaa.	Britain earlier organised an evacuation of non-Britons from Sanaa.	154256629	1476019242818	1476019242919	n	78
301748	3246296	Britain earlier organised an evacuation of non-Britons from Sanaa.	Britain earlier organised an evacuation of non-Britons from Sanaa.	154256951	1476019244239	1476019244387	-	189
301748	3246296	Britain earlier organised an evacuation of non-Britons from Sanaa.	Britain earlier organised an evacuation of non-Britons from Sanaa.	154256956	1476019245244	1476019246419	SHIFT	16
301748	3246296	Britain earlier organised an evacuation of non-Britons from Sanaa.	Britain earlier organised an evacuation of non-Britons from Sanaa.	154256960	1476019246266	1476019246419	B	66
301748	3246296	Britain earlier organised an evacuation of non-Britons from Sanaa.	Britain earlier organised an evacuation of non-Britons from Sanaa.	154256966	1476019246731	1476019246882	r	82
301748	3246296	Britain earlier organised an evacuation of non-Britons from Sanaa.	Britain earlier organised an evacuation of non-Britons from Sanaa.	154256970	1476019246897	1476019246985	i	73
301748	3246296	Britain earlier organised an evacuation of non-Britons from Sanaa.	Britain earlier organised an evacuation of non-Britons from Sanaa.	154256974	1476019248148	1476019248267	t	84
301748	3246296	Britain earlier organised an evacuation of non-Britons from Sanaa.	Britain earlier organised an evacuation of non-Britons from Sanaa.	154257051	1476019248424	1476019248586	o	79
301748	3246296	Britain earlier organised an evacuation of non-Britons from Sanaa.	Britain earlier organised an evacuation of non-Britons from Sanaa.	154257054	1476019248914	1476019249050	n	78
301748	3246296	Britain earlier organised an evacuation of non-Britons from Sanaa.	Britain earlier organised an evacuation of non-Britons from Sanaa.	154257057	1476019249222	1476019249384	s	83
301748	3246296	Britain earlier organised an evacuation of non-Britons from Sanaa.	Britain earlier organised an evacuation of non-Britons from Sanaa.	154257060	1476019249603	1476019249800	 	32
301748	3246296	Britain earlier organised an evacuation of non-Britons from Sanaa.	Britain earlier organised an evacuation of non-Britons from Sanaa.	154257063	1476019250019	1476019250116	f	70
301748	3246296	Britain earlier organised an evacuation of non-Britons from Sanaa.	Britain earlier organised an evacuation of non-Britons from Sanaa.	154257118	1476019250241	1476019250408	r	82
301748	3246296	Britain earlier organised an evacuation of non-Britons from Sanaa.	Britain earlier organised an evacuation of non-Britons from Sanaa.	154257120	1476019250356	1476019250457	o	79
301748	3246296	Britain earlier organised an evacuation of non-Britons from Sanaa.	Britain earlier organised an evacuation of non-Britons from Sanaa.	154257122	1476019250566	1476019250668	m	77
301748	3246296	Britain earlier organised an evacuation of non-Britons from Sanaa.	Britain earlier organised an evacuation of non-Britons from Sanaa.	154257125	1476019250683	1476019250832	 	32
301748	3246296	Britain earlier organised an evacuation of non-Britons from Sanaa.	Britain earlier organised an evacuation of non-Britons from Sanaa.	154257127	1476019251145	1476019251434	SHIFT	16
301748	3246296	Britain earlier organised an evacuation of non-Britons from Sanaa.	Britain earlier organised an evacuation of non-Britons from Sanaa.	154257207	1476019251275	1476019251450	S	83
301748	3246296	Britain earlier organised an evacuation of non-Britons from Sanaa.	Britain earlier organised an evacuation of non-Britons from Sanaa.	154257213	1476019251622	1476019251747	a	65
301748	3246296	Britain earlier organised an evacuation of non-Britons from Sanaa.	Britain earlier organised an evacuation of non-Britons from Sanaa.	154257217	1476019251778	1476019251900	n	78
301748	3246296	Britain earlier organised an evacuation of non-Britons from Sanaa.	Britain earlier organised an evacuation of non-Britons from Sanaa.	154257224	1476019251931	1476019252144	a	65
301748	3246296	Britain earlier organised an evacuation of non-Britons from Sanaa.	Britain earlier organised an evacuation of non-Britons from Sanaa.	154257229	1476019252318	1476019252431	a	65
301748	3246296	Britain earlier organised an evacuation of non-Britons from Sanaa.	Britain earlier organised an evacuation of non-Britons from Sanaa.	154257236	1476019252556	1476019252684	.	190
301748	3246296	Britain earlier organised an evacuation of non-Britons from Sanaa.	Britain earlier organised an evacuation of non-Britons from Sanaa.	154257481	1476019253503	1476019253584	BKSP	8
301748	3246296	Britain earlier organised an evacuation of non-Britons from Sanaa.	Britain earlier organised an evacuation of non-Britons from Sanaa.	154257484	1476019253693	1476019253790	BKSP	8
301748	3246296	Britain earlier organised an evacuation of non-Britons from Sanaa.	Britain earlier organised an evacuation of non-Britons from Sanaa.	154257488	1476019255953	1476019256065	a	65
301748	3246296	Britain earlier organised an evacuation of non-Britons from Sanaa.	Britain earlier organised an evacuation of non-Britons from Sanaa.	154257492	1476019256284	1476019256402	.	190
301748	3246344	Kay Mann is going to take the lead on this.	Kay Mann is going to take the lead on this.	154257941	1476019259299	1476019260239	SHIFT	16
301748	3246344	Kay Mann is going to take the lead on this.	Kay Mann is going to take the lead on this.	154257948	1476019263534	1476019263914	SHIFT	16
301748	3246344	Kay Mann is going to take the lead on this.	Kay Mann is going to take the lead on this.	154257943	1476019263784	1476019263898	K	75
301748	3246344	Kay Mann is going to take the lead on this.	Kay Mann is going to take the lead on this.	154257954	1476019264133	1476019264312	a	65
301748	3246344	Kay Mann is going to take the lead on this.	Kay Mann is going to take the lead on this.	154257959	1476019264578	1476019264767	y	89
301748	3246344	Kay Mann is going to take the lead on this.	Kay Mann is going to take the lead on this.	154257965	1476019264845	1476019264999	 	32
301748	3246344	Kay Mann is going to take the lead on this.	Kay Mann is going to take the lead on this.	154258002	1476019265374	1476019265717	SHIFT	16
301748	3246344	Kay Mann is going to take the lead on this.	Kay Mann is going to take the lead on this.	154257968	1476019265536	1476019265681	M	77
301748	3246344	Kay Mann is going to take the lead on this.	Kay Mann is going to take the lead on this.	154258004	1476019265888	1476019266014	a	65
301748	3246344	Kay Mann is going to take the lead on this.	Kay Mann is going to take the lead on this.	154258006	1476019266358	1476019266439	n	78
301748	3246344	Kay Mann is going to take the lead on this.	Kay Mann is going to take the lead on this.	154258009	1476019266533	1476019266619	n	78
301748	3246344	Kay Mann is going to take the lead on this.	Kay Mann is going to take the lead on this.	154258010	1476019266713	1476019266870	 	32
301748	3246344	Kay Mann is going to take the lead on this.	Kay Mann is going to take the lead on this.	154258080	1476019266818	1476019266920	i	73
301748	3246344	Kay Mann is going to take the lead on this.	Kay Mann is going to take the lead on this.	154258085	1476019267013	1476019267200	s	83
301748	3246344	Kay Mann is going to take the lead on this.	Kay Mann is going to take the lead on this.	154258090	1476019267119	1476019267247	 	32
301748	3246344	Kay Mann is going to take the lead on this.	Kay Mann is going to take the lead on this.	154258095	1476019267953	1476019268095	g	71
301748	3246344	Kay Mann is going to take the lead on this.	Kay Mann is going to take the lead on this.	154258100	1476019268053	1476019268183	o	79
301748	3246344	Kay Mann is going to take the lead on this.	Kay Mann is going to take the lead on this.	154258104	1476019268183	1476019268414	i	73
301748	3246344	Kay Mann is going to take the lead on this.	Kay Mann is going to take the lead on this.	154258139	1476019268364	1476019268468	n	78
301748	3246344	Kay Mann is going to take the lead on this.	Kay Mann is going to take the lead on this.	154258142	1476019268890	1476019269020	g	71
301748	3246344	Kay Mann is going to take the lead on this.	Kay Mann is going to take the lead on this.	154258148	1476019269161	1476019269270	 	32
301748	3246344	Kay Mann is going to take the lead on this.	Kay Mann is going to take the lead on this.	154258153	1476019269286	1476019269464	t	84
301748	3246344	Kay Mann is going to take the lead on this.	Kay Mann is going to take the lead on this.	154258161	1476019269383	1476019269468	o	79
301748	3246344	Kay Mann is going to take the lead on this.	Kay Mann is going to take the lead on this.	154258166	1476019269531	1476019269620	 	32
301748	3246344	Kay Mann is going to take the lead on this.	Kay Mann is going to take the lead on this.	154258218	1476019269871	1476019270118	t	84
301748	3246344	Kay Mann is going to take the lead on this.	Kay Mann is going to take the lead on this.	154258220	1476019270014	1476019270203	a	65
301748	3246344	Kay Mann is going to take the lead on this.	Kay Mann is going to take the lead on this.	154258221	1476019270165	1476019270267	k	75
301748	3246344	Kay Mann is going to take the lead on this.	Kay Mann is going to take the lead on this.	154258223	1476019270345	1476019270483	e	69
301748	3246344	Kay Mann is going to take the lead on this.	Kay Mann is going to take the lead on this.	154258226	1476019270483	1476019270601	 	32
301748	3246344	Kay Mann is going to take the lead on this.	Kay Mann is going to take the lead on this.	154258293	1476019271106	1476019271308	t	84
301748	3246344	Kay Mann is going to take the lead on this.	Kay Mann is going to take the lead on this.	154258295	1476019271222	1476019271324	h	72
301748	3246344	Kay Mann is going to take the lead on this.	Kay Mann is going to take the lead on this.	154258296	1476019271308	1476019271453	e	69
301748	3246344	Kay Mann is going to take the lead on this.	Kay Mann is going to take the lead on this.	154258299	1476019271453	1476019271564	 	32
301748	3246344	Kay Mann is going to take the lead on this.	Kay Mann is going to take the lead on this.	154258301	1476019271674	1476019271791	e	69
301748	3246344	Kay Mann is going to take the lead on this.	Kay Mann is going to take the lead on this.	154258453	1476019271710	1476019271837	l	76
301748	3246344	Kay Mann is going to take the lead on this.	Kay Mann is going to take the lead on this.	154258457	1476019271775	1476019271967	a	65
301748	3246344	Kay Mann is going to take the lead on this.	Kay Mann is going to take the lead on this.	154258462	1476019272123	1476019272260	d	68
301748	3246344	Kay Mann is going to take the lead on this.	Kay Mann is going to take the lead on this.	154258467	1476019272339	1476019272436	 	32
301748	3246344	Kay Mann is going to take the lead on this.	Kay Mann is going to take the lead on this.	154258472	1476019272811	1476019272897	BKSP	8
301748	3246344	Kay Mann is going to take the lead on this.	Kay Mann is going to take the lead on this.	154258477	1476019272980	1476019273070	BKSP	8
301748	3246344	Kay Mann is going to take the lead on this.	Kay Mann is going to take the lead on this.	154258479	1476019273164	1476019273226	BKSP	8
301748	3246344	Kay Mann is going to take the lead on this.	Kay Mann is going to take the lead on this.	154258482	1476019273320	1476019273408	BKSP	8
301748	3246344	Kay Mann is going to take the lead on this.	Kay Mann is going to take the lead on this.	154258483	1476019273486	1476019273583	BKSP	8
301748	3246344	Kay Mann is going to take the lead on this.	Kay Mann is going to take the lead on this.	154258485	1476019273771	1476019273908	l	76
301748	3246344	Kay Mann is going to take the lead on this.	Kay Mann is going to take the lead on this.	154258487	1476019273850	1476019274018	e	69
301748	3246344	Kay Mann is going to take the lead on this.	Kay Mann is going to take the lead on this.	154258522	1476019273970	1476019274130	a	65
301748	3246344	Kay Mann is going to take the lead on this.	Kay Mann is going to take the lead on this.	154258525	1476019274317	1476019274449	d	68
301748	3246344	Kay Mann is going to take the lead on this.	Kay Mann is going to take the lead on this.	154258528	1476019274527	1476019274623	 	32
301748	3246344	Kay Mann is going to take the lead on this.	Kay Mann is going to take the lead on this.	154258530	1476019274670	1476019274781	o	79
301748	3246344	Kay Mann is going to take the lead on this.	Kay Mann is going to take the lead on this.	154258532	1476019274797	1476019274901	n	78
301748	3246344	Kay Mann is going to take the lead on this.	Kay Mann is going to take the lead on this.	154258533	1476019275104	1476019275299	t	84
301748	3246344	Kay Mann is going to take the lead on this.	Kay Mann is going to take the lead on this.	154258646	1476019275222	1476019275344	h	72
301748	3246344	Kay Mann is going to take the lead on this.	Kay Mann is going to take the lead on this.	154258649	1476019275391	1476019275504	i	73
301748	3246344	Kay Mann is going to take the lead on this.	Kay Mann is going to take the lead on this.	154258653	1476019275582	1476019275764	s	83
301748	3246344	Kay Mann is going to take the lead on this.	Kay Mann is going to take the lead on this.	154258658	1476019276206	1476019276306	BKSP	8
301748	3246344	Kay Mann is going to take the lead on this.	Kay Mann is going to take the lead on this.	154258662	1476019276400	1476019276486	BKSP	8
301748	3246344	Kay Mann is going to take the lead on this.	Kay Mann is going to take the lead on this.	154258666	1476019276564	1476019276638	BKSP	8
301748	3246344	Kay Mann is going to take the lead on this.	Kay Mann is going to take the lead on this.	154258673	1476019276730	1476019276793	BKSP	8
301748	3246344	Kay Mann is going to take the lead on this.	Kay Mann is going to take the lead on this.	154258679	1476019277402	1476019277516	 	32
301748	3246344	Kay Mann is going to take the lead on this.	Kay Mann is going to take the lead on this.	154258683	1476019277516	1476019277650	t	84
301748	3246344	Kay Mann is going to take the lead on this.	Kay Mann is going to take the lead on this.	154258689	1476019277650	1476019277770	h	72
301748	3246344	Kay Mann is going to take the lead on this.	Kay Mann is going to take the lead on this.	154258706	1476019277865	1476019277967	i	73
301748	3246344	Kay Mann is going to take the lead on this.	Kay Mann is going to take the lead on this.	154258709	1476019278014	1476019278180	s	83
301748	3246344	Kay Mann is going to take the lead on this.	Kay Mann is going to take the lead on this.	154258711	1476019278290	1476019278356	.	190
301748	3246370	Moreover we have the feeling that we are finally in our own country.	Moreover we have the feeling that we are finally in our own country.	154259135	1476019286942	1476019287244	CTRL	17
301748	3246370	Moreover we have the feeling that we are finally in our own country.	Moreover we have the feeling that we are finally in our own country.	154259131	1476019287119	1476019287197		77
301748	3246370	Moreover we have the feeling that we are finally in our own country.	Moreover we have the feeling that we are finally in our own country.	154259138	1476019287322	1476019287452	o	79
301748	3246370	Moreover we have the feeling that we are finally in our own country.	Moreover we have the feeling that we are finally in our own country.	154259144	1476019287514	1476019287717	r	82
301748	3246370	Moreover we have the feeling that we are finally in our own country.	Moreover we have the feeling that we are finally in our own country.	154259151	1476019287650	1476019287811	e	69
301748	3246370	Moreover we have the feeling that we are finally in our own country.	Moreover we have the feeling that we are finally in our own country.	154259158	1476019288251	1476019288317	BKSP	8
301748	3246370	Moreover we have the feeling that we are finally in our own country.	Moreover we have the feeling that we are finally in our own country.	154259163	1476019288411	1476019288496	BKSP	8
301748	3246370	Moreover we have the feeling that we are finally in our own country.	Moreover we have the feeling that we are finally in our own country.	154259166	1476019288549	1476019288652	BKSP	8
301748	3246370	Moreover we have the feeling that we are finally in our own country.	Moreover we have the feeling that we are finally in our own country.	154259255	1476019288763	1476019289502	CTRL	17
301748	3246370	Moreover we have the feeling that we are finally in our own country.	Moreover we have the feeling that we are finally in our own country.	154259168	1476019289298	1476019289391		77
301748	3246370	Moreover we have the feeling that we are finally in our own country.	Moreover we have the feeling that we are finally in our own country.	154259264	1476019290108	1476019290613	CTRL	17
301748	3246370	Moreover we have the feeling that we are finally in our own country.	Moreover we have the feeling that we are finally in our own country.	154259259	1476019290285	1476019290472		77
301748	3246370	Moreover we have the feeling that we are finally in our own country.	Moreover we have the feeling that we are finally in our own country.	154259276	1476019291397	1476019291842	SHIFT	16
301748	3246370	Moreover we have the feeling that we are finally in our own country.	Moreover we have the feeling that we are finally in our own country.	154259270	1476019291632	1476019291796	M	77
301748	3246370	Moreover we have the feeling that we are finally in our own country.	Moreover we have the feeling that we are finally in our own country.	154259281	1476019292046	1476019292203	o	79
301748	3246370	Moreover we have the feeling that we are finally in our own country.	Moreover we have the feeling that we are finally in our own country.	154259287	1476019292272	1476019292457	r	82
301748	3246370	Moreover we have the feeling that we are finally in our own country.	Moreover we have the feeling that we are finally in our own country.	154259324	1476019292371	1476019292520	e	69
301748	3246370	Moreover we have the feeling that we are finally in our own country.	Moreover we have the feeling that we are finally in our own country.	154259327	1476019292630	1476019292749	o	79
301748	3246370	Moreover we have the feeling that we are finally in our own country.	Moreover we have the feeling that we are finally in our own country.	154259329	1476019292749	1476019292884	v	86
301748	3246370	Moreover we have the feeling that we are finally in our own country.	Moreover we have the feeling that we are finally in our own country.	154259331	1476019292977	1476019293157	e	69
301748	3246370	Moreover we have the feeling that we are finally in our own country.	Moreover we have the feeling that we are finally in our own country.	154259332	1476019293057	1476019293235	r	82
301748	3246370	Moreover we have the feeling that we are finally in our own country.	Moreover we have the feeling that we are finally in our own country.	154259333	1476019293454	1476019293556	 	32
301748	3246370	Moreover we have the feeling that we are finally in our own country.	Moreover we have the feeling that we are finally in our own country.	154259358	1476019293572	1476019293779	w	87
301748	3246370	Moreover we have the feeling that we are finally in our own country.	Moreover we have the feeling that we are finally in our own country.	154259361	1476019293634	1476019293779	e	69
301748	3246370	Moreover we have the feeling that we are finally in our own country.	Moreover we have the feeling that we are finally in our own country.	154259363	1476019293826	1476019293918	 	32
301748	3246370	Moreover we have the feeling that we are finally in our own country.	Moreover we have the feeling that we are finally in our own country.	154259367	1476019294074	1476019294217	h	72
301748	3246370	Moreover we have the feeling that we are finally in our own country.	Moreover we have the feeling that we are finally in our own country.	154259371	1476019294217	1476019294381	a	65
301748	3246370	Moreover we have the feeling that we are finally in our own country.	Moreover we have the feeling that we are finally in our own country.	154259383	1476019294381	1476019294499	v	86
301748	3246370	Moreover we have the feeling that we are finally in our own country.	Moreover we have the feeling that we are finally in our own country.	154259384	1476019294577	1476019294688	e	69
301748	3246370	Moreover we have the feeling that we are finally in our own country.	Moreover we have the feeling that we are finally in our own country.	154259385	1476019294704	1476019294820	 	32
301748	3246370	Moreover we have the feeling that we are finally in our own country.	Moreover we have the feeling that we are finally in our own country.	154259386	1476019294836	1476019295040	t	84
301748	3246370	Moreover we have the feeling that we are finally in our own country.	Moreover we have the feeling that we are finally in our own country.	154259417	1476019294932	1476019295055	h	72
301748	3246370	Moreover we have the feeling that we are finally in our own country.	Moreover we have the feeling that we are finally in our own country.	154259419	1476019294982	1476019295132	e	69
301748	3246370	Moreover we have the feeling that we are finally in our own country.	Moreover we have the feeling that we are finally in our own country.	154259422	1476019295071	1476019295187	 	32
301748	3246370	Moreover we have the feeling that we are finally in our own country.	Moreover we have the feeling that we are finally in our own country.	154259425	1476019295281	1476019295447	f	70
301748	3246370	Moreover we have the feeling that we are finally in our own country.	Moreover we have the feeling that we are finally in our own country.	154259429	1476019295652	1476019295734	e	69
301748	3246370	Moreover we have the feeling that we are finally in our own country.	Moreover we have the feeling that we are finally in our own country.	154259434	1476019295851	1476019295965	e	69
301748	3246370	Moreover we have the feeling that we are finally in our own country.	Moreover we have the feeling that we are finally in our own country.	154259438	1476019296046	1476019296134	l	76
301748	3246370	Moreover we have the feeling that we are finally in our own country.	Moreover we have the feeling that we are finally in our own country.	154259458	1476019296214	1476019296318	i	73
301748	3246370	Moreover we have the feeling that we are finally in our own country.	Moreover we have the feeling that we are finally in our own country.	154259461	1476019296381	1476019296467	n	78
301748	3246370	Moreover we have the feeling that we are finally in our own country.	Moreover we have the feeling that we are finally in our own country.	154259466	1476019296514	1476019296664	g	71
301748	3246370	Moreover we have the feeling that we are finally in our own country.	Moreover we have the feeling that we are finally in our own country.	154259470	1476019296679	1476019296768	 	32
301748	3246370	Moreover we have the feeling that we are finally in our own country.	Moreover we have the feeling that we are finally in our own country.	154259473	1476019296800	1476019296957	t	84
301748	3246370	Moreover we have the feeling that we are finally in our own country.	Moreover we have the feeling that we are finally in our own country.	154259492	1476019296889	1476019297036	h	72
301748	3246370	Moreover we have the feeling that we are finally in our own country.	Moreover we have the feeling that we are finally in our own country.	154259498	1476019297114	1476019297248	a	65
301748	3246370	Moreover we have the feeling that we are finally in our own country.	Moreover we have the feeling that we are finally in our own country.	154259503	1476019297279	1476019297415	t	84
301748	3246370	Moreover we have the feeling that we are finally in our own country.	Moreover we have the feeling that we are finally in our own country.	154259508	1476019297462	1476019297582	 	32
301748	3246370	Moreover we have the feeling that we are finally in our own country.	Moreover we have the feeling that we are finally in our own country.	154259511	1476019297723	1476019297965	w	87
301748	3246370	Moreover we have the feeling that we are finally in our own country.	Moreover we have the feeling that we are finally in our own country.	154259539	1476019297868	1476019297980	e	69
301748	3246370	Moreover we have the feeling that we are finally in our own country.	Moreover we have the feeling that we are finally in our own country.	154259541	1476019298027	1476019298152	 	32
301748	3246370	Moreover we have the feeling that we are finally in our own country.	Moreover we have the feeling that we are finally in our own country.	154259543	1476019298418	1476019298577	a	65
301748	3246370	Moreover we have the feeling that we are finally in our own country.	Moreover we have the feeling that we are finally in our own country.	154259548	1476019298577	1476019298783	r	82
301748	3246370	Moreover we have the feeling that we are finally in our own country.	Moreover we have the feeling that we are finally in our own country.	154259553	1476019298720	1476019298800	e	69
301748	3246370	Moreover we have the feeling that we are finally in our own country.	Moreover we have the feeling that we are finally in our own country.	154259558	1476019298832	1476019298934	 	32
301748	3246370	Moreover we have the feeling that we are finally in our own country.	Moreover we have the feeling that we are finally in our own country.	154259570	1476019299092	1476019299270	f	70
301748	3246370	Moreover we have the feeling that we are finally in our own country.	Moreover we have the feeling that we are finally in our own country.	154259571	1476019299170	1476019299270	i	73
301748	3246370	Moreover we have the feeling that we are finally in our own country.	Moreover we have the feeling that we are finally in our own country.	154259572	1476019299301	1476019299415	n	78
301748	3246370	Moreover we have the feeling that we are finally in our own country.	Moreover we have the feeling that we are finally in our own country.	154259573	1476019299493	1476019299650	a	65
301748	3246370	Moreover we have the feeling that we are finally in our own country.	Moreover we have the feeling that we are finally in our own country.	154259611	1476019299585	1476019299716	l	76
301748	3246370	Moreover we have the feeling that we are finally in our own country.	Moreover we have the feeling that we are finally in our own country.	154259615	1476019299778	1476019299871	l	76
301748	3246370	Moreover we have the feeling that we are finally in our own country.	Moreover we have the feeling that we are finally in our own country.	154259619	1476019300011	1476019300134	y	89
301748	3246370	Moreover we have the feeling that we are finally in our own country.	Moreover we have the feeling that we are finally in our own country.	154259626	1476019300165	1476019300268	 	32
301748	3246370	Moreover we have the feeling that we are finally in our own country.	Moreover we have the feeling that we are finally in our own country.	154259631	1476019300347	1476019300471	i	73
301748	3246370	Moreover we have the feeling that we are finally in our own country.	Moreover we have the feeling that we are finally in our own country.	154259637	1476019300487	1476019300635	n	78
301748	3246370	Moreover we have the feeling that we are finally in our own country.	Moreover we have the feeling that we are finally in our own country.	154259723	1476019300747	1476019300926	o	79
301748	3246370	Moreover we have the feeling that we are finally in our own country.	Moreover we have the feeling that we are finally in our own country.	154259726	1476019300850	1476019300956	u	85
301748	3246370	Moreover we have the feeling that we are finally in our own country.	Moreover we have the feeling that we are finally in our own country.	154259731	1476019301018	1476019301162	r	82
301748	3246370	Moreover we have the feeling that we are finally in our own country.	Moreover we have the feeling that we are finally in our own country.	154259736	1476019301209	1476019301300	 	32
301748	3246370	Moreover we have the feeling that we are finally in our own country.	Moreover we have the feeling that we are finally in our own country.	154259740	1476019301519	1476019301615	BKSP	8
301748	3246370	Moreover we have the feeling that we are finally in our own country.	Moreover we have the feeling that we are finally in our own country.	154259742	1476019301709	1476019301772	BKSP	8
301748	3246370	Moreover we have the feeling that we are finally in our own country.	Moreover we have the feeling that we are finally in our own country.	154259744	1476019301866	1476019301934	BKSP	8
301748	3246370	Moreover we have the feeling that we are finally in our own country.	Moreover we have the feeling that we are finally in our own country.	154259750	1476019302012	1476019302102	BKSP	8
301748	3246370	Moreover we have the feeling that we are finally in our own country.	Moreover we have the feeling that we are finally in our own country.	154259753	1476019302339	1476019302485	 	32
301748	3246370	Moreover we have the feeling that we are finally in our own country.	Moreover we have the feeling that we are finally in our own country.	154259725	1476019302517	1476019302701	o	79
301748	3246370	Moreover we have the feeling that we are finally in our own country.	Moreover we have the feeling that we are finally in our own country.	154259728	1476019302634	1476019302733	u	85
301748	3246370	Moreover we have the feeling that we are finally in our own country.	Moreover we have the feeling that we are finally in our own country.	154259732	1476019302764	1476019302950	r	82
301748	3246370	Moreover we have the feeling that we are finally in our own country.	Moreover we have the feeling that we are finally in our own country.	154259737	1476019302904	1476019303021	 	32
301748	3246370	Moreover we have the feeling that we are finally in our own country.	Moreover we have the feeling that we are finally in our own country.	154259739	1476019303115	1476019303249	o	79
301748	3246370	Moreover we have the feeling that we are finally in our own country.	Moreover we have the feeling that we are finally in our own country.	154259775	1476019303264	1476019303450	w	87
301748	3246370	Moreover we have the feeling that we are finally in our own country.	Moreover we have the feeling that we are finally in our own country.	154259777	1476019303383	1476019303484	n	78
301748	3246370	Moreover we have the feeling that we are finally in our own country.	Moreover we have the feeling that we are finally in our own country.	154259781	1476019303593	1476019303689	 	32
301748	3246370	Moreover we have the feeling that we are finally in our own country.	Moreover we have the feeling that we are finally in our own country.	154259783	1476019303892	1476019304083	c	67
301748	3246370	Moreover we have the feeling that we are finally in our own country.	Moreover we have the feeling that we are finally in our own country.	154259789	1476019304083	1476019304289	o	79
301748	3246370	Moreover we have the feeling that we are finally in our own country.	Moreover we have the feeling that we are finally in our own country.	154259864	1476019304220	1476019304352	u	85
301748	3246370	Moreover we have the feeling that we are finally in our own country.	Moreover we have the feeling that we are finally in our own country.	154259865	1476019304493	1476019304604	n	78
301748	3246370	Moreover we have the feeling that we are finally in our own country.	Moreover we have the feeling that we are finally in our own country.	154259866	1476019304760	1476019304883	t	84
301748	3246370	Moreover we have the feeling that we are finally in our own country.	Moreover we have the feeling that we are finally in our own country.	154259867	1476019305070	1476019305202	r	82
301748	3246370	Moreover we have the feeling that we are finally in our own country.	Moreover we have the feeling that we are finally in our own country.	154259869	1476019305592	1476019305751	y	89
301748	3246370	Moreover we have the feeling that we are finally in our own country.	Moreover we have the feeling that we are finally in our own country.	154259872	1476019305969	1476019306081	.	190
301748	3246394	Did you not read my first email?	Did you not read my first email?	154260195	1476019310610	1476019310928	SHIFT	16
301748	3246394	Did you not read my first email?	Did you not read my first email?	154260197	1476019310766	1476019310975	D	68
301748	3246394	Did you not read my first email?	Did you not read my first email?	154260200	1476019311116	1476019311231	u	85
301748	3246394	Did you not read my first email?	Did you not read my first email?	154260203	1476019311356	1476019311515	d	68
301748	3246394	Did you not read my first email?	Did you not read my first email?	154260205	1476019311547	1476019311695	 	32
301748	3246394	Did you not read my first email?	Did you not read my first email?	154260209	1476019311929	1476019312032	BKSP	8
301748	3246394	Did you not read my first email?	Did you not read my first email?	154260211	1476019312113	1476019312200	BKSP	8
301748	3246394	Did you not read my first email?	Did you not read my first email?	154260215	1476019312279	1476019312367	BKSP	8
301748	3246394	Did you not read my first email?	Did you not read my first email?	154260218	1476019313734	1476019313839	i	73
301748	3246394	Did you not read my first email?	Did you not read my first email?	154260227	1476019313902	1476019314086	d	68
301748	3246394	Did you not read my first email?	Did you not read my first email?	154260230	1476019314045	1476019314165	 	32
301748	3246394	Did you not read my first email?	Did you not read my first email?	154260233	1476019314274	1476019314434	y	89
301748	3246394	Did you not read my first email?	Did you not read my first email?	154260236	1476019314402	1476019314547	o	79
301748	3246394	Did you not read my first email?	Did you not read my first email?	154260238	1476019314547	1476019314666	u	85
301748	3246394	Did you not read my first email?	Did you not read my first email?	154260266	1476019314697	1476019314847	 	32
301748	3246394	Did you not read my first email?	Did you not read my first email?	154260268	1476019314941	1476019315133	n	78
301748	3246394	Did you not read my first email?	Did you not read my first email?	154260269	1476019315036	1476019315195	o	79
301748	3246394	Did you not read my first email?	Did you not read my first email?	154260271	1476019315226	1476019315380	t	84
301748	3246394	Did you not read my first email?	Did you not read my first email?	154260274	1476019315395	1476019315516	 	32
301748	3246394	Did you not read my first email?	Did you not read my first email?	154260308	1476019315674	1476019315897	r	82
301748	3246394	Did you not read my first email?	Did you not read my first email?	154260311	1476019315786	1476019315944	e	69
301748	3246394	Did you not read my first email?	Did you not read my first email?	154260317	1476019315944	1476019316078	a	65
301748	3246394	Did you not read my first email?	Did you not read my first email?	154260324	1476019316125	1476019316274	d	68
301748	3246394	Did you not read my first email?	Did you not read my first email?	154260329	1476019316383	1476019316500	 	32
301748	3246394	Did you not read my first email?	Did you not read my first email?	154260356	1476019316863	1476019316979	m	77
301748	3246394	Did you not read my first email?	Did you not read my first email?	154260357	1476019317135	1476019317292	y	89
301748	3246394	Did you not read my first email?	Did you not read my first email?	154260358	1476019317354	1476019317459	 	32
301748	3246394	Did you not read my first email?	Did you not read my first email?	154260361	1476019317505	1476019317640	f	70
301748	3246394	Did you not read my first email?	Did you not read my first email?	154260362	1476019317640	1476019317757	i	73
301748	3246394	Did you not read my first email?	Did you not read my first email?	154260368	1476019317805	1476019317909	r	82
301748	3246394	Did you not read my first email?	Did you not read my first email?	154260369	1476019318065	1476019318178	s	83
301748	3246394	Did you not read my first email?	Did you not read my first email?	154260370	1476019318178	1476019318326	t	84
301748	3246394	Did you not read my first email?	Did you not read my first email?	154260372	1476019318389	1476019318492	 	32
301748	3246394	Did you not read my first email?	Did you not read my first email?	154260374	1476019318523	1476019318714	e	69
301748	3246394	Did you not read my first email?	Did you not read my first email?	154260497	1476019318672	1476019318837	a	65
301748	3246394	Did you not read my first email?	Did you not read my first email?	154260502	1476019319390	1476019319539	i	73
301748	3246394	Did you not read my first email?	Did you not read my first email?	154260506	1476019319710	1476019319838	l	76
301748	3246394	Did you not read my first email?	Did you not read my first email?	154260511	1476019320292	1476019320604	SHIFT	16
301748	3246394	Did you not read my first email?	Did you not read my first email?	154260518	1476019320292	1476019320620	CTRL	17
301748	3246394	Did you not read my first email?	Did you not read my first email?	154260521	1476019321201	1476019321280	BKSP	8
301748	3246394	Did you not read my first email?	Did you not read my first email?	154260526	1476019321328	1476019321455	BKSP	8
301748	3246394	Did you not read my first email?	Did you not read my first email?	154260532	1476019321783	1476019321951	a	65
301748	3246394	Did you not read my first email?	Did you not read my first email?	154260535	1476019321893	1476019321991	i	73
301748	3246394	Did you not read my first email?	Did you not read my first email?	154260537	1476019322132	1476019322247	l	76
301748	3246394	Did you not read my first email?	Did you not read my first email?	154260659	1476019322498	1476019322947	SHIFT	16
301748	3246394	Did you not read my first email?	Did you not read my first email?	154260662	1476019323087	1476019323192	BKSP	8
301748	3246394	Did you not read my first email?	Did you not read my first email?	154260672	1476019323286	1476019323376	BKSP	8
301748	3246394	Did you not read my first email?	Did you not read my first email?	154260678	1476019323501	1476019323542	BKSP	8
301748	3246394	Did you not read my first email?	Did you not read my first email?	154260684	1476019323596	1476019323697	BKSP	8
301748	3246394	Did you not read my first email?	Did you not read my first email?	154260686	1476019324426	1476019324543	m	77
301748	3246394	Did you not read my first email?	Did you not read my first email?	154260688	1476019324637	1476019324840	a	65
301748	3246394	Did you not read my first email?	Did you not read my first email?	154260689	1476019324757	1476019324856	i	73
301748	3246394	Did you not read my first email?	Did you not read my first email?	154260690	1476019324997	1476019325110	l	76
301748	3246394	Did you not read my first email?	Did you not read my first email?	154260692	1476019325362	1476019325549	SHIFT	16
301748	3246394	Did you not read my first email?	Did you not read my first email?	154260691	1476019325893	1476019326407	SHIFT	16
301748	3246394	Did you not read my first email?	Did you not read my first email?	154260693	1476019326115	1476019326240	?	191
301748	3246411	Winning here, everybody was more shocked and surprised.	Winning here, everybody was more shocked and surprised.	154261031	1476019329541	1476019330467	SHIFT	16
301748	3246411	Winning here, everybody was more shocked and surprised.	Winning here, everybody was more shocked and surprised.	154261034	1476019330686	1476019333021	SHIFT	16
301748	3246411	Winning here, everybody was more shocked and surprised.	Winning here, everybody was more shocked and surprised.	154261037	1476019332895	1476019333021	W	87
301748	3246411	Winning here, everybody was more shocked and surprised.	Winning here, everybody was more shocked and surprised.	154261040	1476019333631	1476019333730	i	73
301748	3246411	Winning here, everybody was more shocked and surprised.	Winning here, everybody was more shocked and surprised.	154261046	1476019333933	1476019334057	n	78
301748	3246411	Winning here, everybody was more shocked and surprised.	Winning here, everybody was more shocked and surprised.	154261051	1476019334120	1476019334224	n	78
301748	3246411	Winning here, everybody was more shocked and surprised.	Winning here, everybody was more shocked and surprised.	154261055	1476019334932	1476019334997	i	73
301748	3246411	Winning here, everybody was more shocked and surprised.	Winning here, everybody was more shocked and surprised.	154261140	1476019335091	1476019335189	n	78
301748	3246411	Winning here, everybody was more shocked and surprised.	Winning here, everybody was more shocked and surprised.	154261143	1476019335740	1476019336026	g	71
301748	3246411	Winning here, everybody was more shocked and surprised.	Winning here, everybody was more shocked and surprised.	154261148	1476019336387	1476019336538	 	32
301748	3246411	Winning here, everybody was more shocked and surprised.	Winning here, everybody was more shocked and surprised.	154261153	1476019336866	1476019336978	h	72
301748	3246411	Winning here, everybody was more shocked and surprised.	Winning here, everybody was more shocked and surprised.	154261157	1476019337072	1476019337241	e	69
301748	3246411	Winning here, everybody was more shocked and surprised.	Winning here, everybody was more shocked and surprised.	154261224	1476019337189	1476019337442	r	82
301748	3246411	Winning here, everybody was more shocked and surprised.	Winning here, everybody was more shocked and surprised.	154261229	1476019337353	1476019337458	e	69
301748	3246411	Winning here, everybody was more shocked and surprised.	Winning here, everybody was more shocked and surprised.	154261231	1476019337708	1476019337821	,	188
301748	3246411	Winning here, everybody was more shocked and surprised.	Winning here, everybody was more shocked and surprised.	154261233	1476019337915	1476019338058	 	32
301748	3246411	Winning here, everybody was more shocked and surprised.	Winning here, everybody was more shocked and surprised.	154261235	1476019338152	1476019338304	e	69
301748	3246411	Winning here, everybody was more shocked and surprised.	Winning here, everybody was more shocked and surprised.	154261237	1476019338414	1476019338560	v	86
301748	3246411	Winning here, everybody was more shocked and surprised.	Winning here, everybody was more shocked and surprised.	154261289	1476019338639	1476019338827	e	69
301748	3246411	Winning here, everybody was more shocked and surprised.	Winning here, everybody was more shocked and surprised.	154261292	1476019338772	1476019338906	r	82
301748	3246411	Winning here, everybody was more shocked and surprised.	Winning here, everybody was more shocked and surprised.	154261295	1476019338937	1476019339087	y	89
301748	3246411	Winning here, everybody was more shocked and surprised.	Winning here, everybody was more shocked and surprised.	154261298	1476019339134	1476019339241	 	32
301748	3246411	Winning here, everybody was more shocked and surprised.	Winning here, everybody was more shocked and surprised.	154261302	1476019339647	1476019339728	BKSP	8
301748	3246411	Winning here, everybody was more shocked and surprised.	Winning here, everybody was more shocked and surprised.	154261307	1476019339775	1476019339895	b	66
301748	3246411	Winning here, everybody was more shocked and surprised.	Winning here, everybody was more shocked and surprised.	154261349	1476019339959	1476019340056	o	79
301748	3246411	Winning here, everybody was more shocked and surprised.	Winning here, everybody was more shocked and surprised.	154261352	1476019340166	1476019340389	d	68
301748	3246411	Winning here, everybody was more shocked and surprised.	Winning here, everybody was more shocked and surprised.	154261354	1476019340354	1476019340473	y	89
301748	3246411	Winning here, everybody was more shocked and surprised.	Winning here, everybody was more shocked and surprised.	154261356	1476019340567	1476019340709	 	32
301748	3246411	Winning here, everybody was more shocked and surprised.	Winning here, everybody was more shocked and surprised.	154261358	1476019340803	1476019340923	w	87
301748	3246411	Winning here, everybody was more shocked and surprised.	Winning here, everybody was more shocked and surprised.	154261424	1476019341065	1476019341244	a	65
301748	3246411	Winning here, everybody was more shocked and surprised.	Winning here, everybody was more shocked and surprised.	154261428	1476019341146	1476019341291	s	83
301748	3246411	Winning here, everybody was more shocked and surprised.	Winning here, everybody was more shocked and surprised.	154261433	1476019341619	1476019341775	 	32
301748	3246411	Winning here, everybody was more shocked and surprised.	Winning here, everybody was more shocked and surprised.	154261436	1476019341884	1476019342022	m	77
301748	3246411	Winning here, everybody was more shocked and surprised.	Winning here, everybody was more shocked and surprised.	154261439	1476019342084	1476019342195	o	79
301748	3246411	Winning here, everybody was more shocked and surprised.	Winning here, everybody was more shocked and surprised.	154261453	1476019342258	1476019342415	r	82
301748	3246411	Winning here, everybody was more shocked and surprised.	Winning here, everybody was more shocked and surprised.	154261456	1476019342332	1476019342461	e	69
301748	3246411	Winning here, everybody was more shocked and surprised.	Winning here, everybody was more shocked and surprised.	154261458	1476019342493	1476019342624	 	32
301748	3246411	Winning here, everybody was more shocked and surprised.	Winning here, everybody was more shocked and surprised.	154261461	1476019342733	1476019342899	s	83
301748	3246411	Winning here, everybody was more shocked and surprised.	Winning here, everybody was more shocked and surprised.	154261502	1476019342825	1476019342998	h	72
301748	3246411	Winning here, everybody was more shocked and surprised.	Winning here, everybody was more shocked and surprised.	154261504	1476019342928	1476019343091	o	79
301748	3246411	Winning here, everybody was more shocked and surprised.	Winning here, everybody was more shocked and surprised.	154261505	1476019343531	1476019343660	c	67
301748	3246411	Winning here, everybody was more shocked and surprised.	Winning here, everybody was more shocked and surprised.	154261506	1476019343738	1476019343856	k	75
301748	3246411	Winning here, everybody was more shocked and surprised.	Winning here, everybody was more shocked and surprised.	154261507	1476019343872	1476019343989	e	69
301748	3246411	Winning here, everybody was more shocked and surprised.	Winning here, everybody was more shocked and surprised.	154261508	1476019344114	1476019344228	d	68
301748	3246411	Winning here, everybody was more shocked and surprised.	Winning here, everybody was more shocked and surprised.	154261520	1476019344276	1476019344375	 	32
301748	3246411	Winning here, everybody was more shocked and surprised.	Winning here, everybody was more shocked and surprised.	154261524	1476019344406	1476019344551	a	65
301748	3246411	Winning here, everybody was more shocked and surprised.	Winning here, everybody was more shocked and surprised.	154261527	1476019344551	1476019344645	n	78
301748	3246411	Winning here, everybody was more shocked and surprised.	Winning here, everybody was more shocked and surprised.	154261529	1476019344661	1476019344801	d	68
301748	3246411	Winning here, everybody was more shocked and surprised.	Winning here, everybody was more shocked and surprised.	154261530	1476019344817	1476019344939	 	32
301748	3246411	Winning here, everybody was more shocked and surprised.	Winning here, everybody was more shocked and surprised.	154261606	1476019345049	1476019345207	s	83
301748	3246411	Winning here, everybody was more shocked and surprised.	Winning here, everybody was more shocked and surprised.	154261607	1476019345129	1476019345230	u	85
301748	3246411	Winning here, everybody was more shocked and surprised.	Winning here, everybody was more shocked and surprised.	154261608	1476019345930	1476019346092	r	82
301748	3246411	Winning here, everybody was more shocked and surprised.	Winning here, everybody was more shocked and surprised.	154261609	1476019346295	1476019346394	p	80
301748	3246411	Winning here, everybody was more shocked and surprised.	Winning here, everybody was more shocked and surprised.	154261610	1476019346566	1476019346709	r	82
301748	3246411	Winning here, everybody was more shocked and surprised.	Winning here, everybody was more shocked and surprised.	154261660	1476019346742	1476019346831	i	73
301748	3246411	Winning here, everybody was more shocked and surprised.	Winning here, everybody was more shocked and surprised.	154261661	1476019347437	1476019347561	s	83
301748	3246411	Winning here, everybody was more shocked and surprised.	Winning here, everybody was more shocked and surprised.	154261662	1476019347639	1476019347772	e	69
301748	3246411	Winning here, everybody was more shocked and surprised.	Winning here, everybody was more shocked and surprised.	154261663	1476019347866	1476019348041	d	68
301748	3246411	Winning here, everybody was more shocked and surprised.	Winning here, everybody was more shocked and surprised.	154261664	1476019348119	1476019348223	.	190
301748	3246429	Just playing with you!	Just playing with you!	154261795	1476019351101	1476019351488	SHIFT	16
301748	3246429	Just playing with you!	Just playing with you!	154261794	1476019351335	1476019351457	J	74
301748	3246429	Just playing with you!	Just playing with you!	154261796	1476019351613	1476019351712	u	85
301748	3246429	Just playing with you!	Just playing with you!	154261797	1476019351728	1476019351892	s	83
301748	3246429	Just playing with you!	Just playing with you!	154261798	1476019351955	1476019352103	t	84
301748	3246429	Just playing with you!	Just playing with you!	154261800	1476019352103	1476019352223	 	32
301748	3246429	Just playing with you!	Just playing with you!	154261906	1476019352302	1476019352422	p	80
301748	3246429	Just playing with you!	Just playing with you!	154261912	1476019352547	1476019352661	l	76
301748	3246429	Just playing with you!	Just playing with you!	154261916	1476019352692	1476019352866	a	65
301748	3246429	Just playing with you!	Just playing with you!	154261920	1476019353069	1476019353189	y	89
301748	3246429	Just playing with you!	Just playing with you!	154261925	1476019354618	1476019354758	i	73
301748	3246429	Just playing with you!	Just playing with you!	154262011	1476019354853	1476019354942	n	78
301748	3246429	Just playing with you!	Just playing with you!	154262013	1476019355114	1476019355195	g	71
301748	3246429	Just playing with you!	Just playing with you!	154262015	1476019355170	1476019355261	 	32
301748	3246429	Just playing with you!	Just playing with you!	154262017	1476019355606	1476019355696	BKSP	8
301748	3246429	Just playing with you!	Just playing with you!	154262019	1476019356480	1476019356594	 	32
301748	3246429	Just playing with you!	Just playing with you!	154262021	1476019356735	1476019356837	i	73
301748	3246429	Just playing with you!	Just playing with you!	154262103	1476019356813	1476019357021	w	87
301748	3246429	Just playing with you!	Just playing with you!	154262107	1476019357318	1476019357409	BKSP	8
301748	3246429	Just playing with you!	Just playing with you!	154262109	1476019357502	1476019357598	BKSP	8
301748	3246429	Just playing with you!	Just playing with you!	154262111	1476019357599	1476019357772	w	87
301748	3246429	Just playing with you!	Just playing with you!	154262114	1476019357772	1476019357893	i	73
301748	3246429	Just playing with you!	Just playing with you!	154262119	1476019357909	1476019358113	t	84
301748	3246429	Just playing with you!	Just playing with you!	154262122	1476019358051	1476019358176	h	72
301748	3246429	Just playing with you!	Just playing with you!	154262126	1476019358286	1476019358521	 	32
301748	3246429	Just playing with you!	Just playing with you!	154262258	1476019358467	1476019358641	y	89
301748	3246429	Just playing with you!	Just playing with you!	154262262	1476019358641	1476019358829	o	79
301748	3246429	Just playing with you!	Just playing with you!	154262265	1476019358769	1476019358859	u	85
301748	3246429	Just playing with you!	Just playing with you!	154262271	1476019359566	1476019360576	SHIFT	16
301748	3246429	Just playing with you!	Just playing with you!	154262268	1476019360270	1476019360482	!	49
301748	3246443	Chris Foster is in!	Chis Foster is ini	154262502	1476019364258	1476019364577	SHIFT	16
301748	3246443	Chris Foster is in!	Chis Foster is ini	154262503	1476019364471	1476019364608	C	67
301748	3246443	Chris Foster is in!	Chis Foster is ini	154262504	1476019364827	1476019364943	h	72
301748	3246443	Chris Foster is in!	Chis Foster is ini	154262505	1476019365146	1476019365261	i	73
301748	3246443	Chris Foster is in!	Chis Foster is ini	154262506	1476019365386	1476019365552	s	83
301748	3246443	Chris Foster is in!	Chis Foster is ini	154262508	1476019365662	1476019365792	 	32
301748	3246443	Chris Foster is in!	Chis Foster is ini	154262570	1476019365950	1476019366125	f	70
301748	3246443	Chris Foster is in!	Chis Foster is ini	154262571	1476019366092	1476019366207	o	79
301748	3246443	Chris Foster is in!	Chis Foster is ini	154262574	1476019366898	1476019366977	BKSP	8
301748	3246443	Chris Foster is in!	Chis Foster is ini	154262577	1476019367040	1476019367143	BKSP	8
301748	3246443	Chris Foster is in!	Chis Foster is ini	154262580	1476019367331	1476019367488	SHIFT	16
301748	3246443	Chris Foster is in!	Chis Foster is ini	154262584	1476019367393	1476019367613	F	70
301748	3246443	Chris Foster is in!	Chis Foster is ini	154262589	1476019367661	1476019367775	o	79
301748	3246443	Chris Foster is in!	Chis Foster is ini	154262595	1476019367806	1476019367937	s	83
301748	3246443	Chris Foster is in!	Chis Foster is ini	154262623	1476019368031	1476019368159	t	84
301748	3246443	Chris Foster is in!	Chis Foster is ini	154262626	1476019368221	1476019368390	e	69
301748	3246443	Chris Foster is in!	Chis Foster is ini	154262629	1476019368308	1476019368469	r	82
301748	3246443	Chris Foster is in!	Chis Foster is ini	154262632	1476019368563	1476019368662	 	32
301748	3246443	Chris Foster is in!	Chis Foster is ini	154262636	1476019368693	1476019368803	i	73
301748	3246443	Chris Foster is in!	Chis Foster is ini	154262676	1476019368835	1476019369007	s	83
301748	3246443	Chris Foster is in!	Chis Foster is ini	154262681	1476019369007	1476019369105	 	32
301748	3246443	Chris Foster is in!	Chis Foster is ini	154262687	1476019369308	1476019369422	i	73
301748	3246443	Chris Foster is in!	Chis Foster is ini	154262692	1476019369579	1476019369709	n	78
301748	3246443	Chris Foster is in!	Chis Foster is ini	154262697	1476019369771	1476019369902	i	73
301748	3246455	I have the option of starting Jim Miller or picking up Chris Weinke.	I have the option of starting Jim Miler or picking up Chris Weinke.	154262994	1476019373799	1476019374324	SHIFT	16
301748	3246455	I have the option of starting Jim Miller or picking up Chris Weinke.	I have the option of starting Jim Miler or picking up Chris Weinke.	154262990	1476019374197	1476019374324	I	73
301748	3246455	I have the option of starting Jim Miller or picking up Chris Weinke.	I have the option of starting Jim Miler or picking up Chris Weinke.	154262997	1476019374464	1476019374560	 	32
301748	3246455	I have the option of starting Jim Miller or picking up Chris Weinke.	I have the option of starting Jim Miler or picking up Chris Weinke.	154262999	1476019374654	1476019374798	h	72
301748	3246455	I have the option of starting Jim Miller or picking up Chris Weinke.	I have the option of starting Jim Miler or picking up Chris Weinke.	154263002	1476019374746	1476019374923	a	65
301748	3246455	I have the option of starting Jim Miller or picking up Chris Weinke.	I have the option of starting Jim Miler or picking up Chris Weinke.	154263006	1476019374970	1476019375074	v	86
301748	3246455	I have the option of starting Jim Miller or picking up Chris Weinke.	I have the option of starting Jim Miler or picking up Chris Weinke.	154263032	1476019375184	1476019375323	e	69
301748	3246455	I have the option of starting Jim Miller or picking up Chris Weinke.	I have the option of starting Jim Miler or picking up Chris Weinke.	154263034	1476019375370	1476019375488	 	32
301748	3246455	I have the option of starting Jim Miller or picking up Chris Weinke.	I have the option of starting Jim Miler or picking up Chris Weinke.	154263036	1476019375519	1476019375740	t	84
301748	3246455	I have the option of starting Jim Miller or picking up Chris Weinke.	I have the option of starting Jim Miler or picking up Chris Weinke.	154263088	1476019375639	1476019375798	h	72
301748	3246455	I have the option of starting Jim Miller or picking up Chris Weinke.	I have the option of starting Jim Miler or picking up Chris Weinke.	154263090	1476019375740	1476019375880	e	69
301748	3246455	I have the option of starting Jim Miller or picking up Chris Weinke.	I have the option of starting Jim Miler or picking up Chris Weinke.	154263094	1476019375829	1476019375944	 	32
301748	3246455	I have the option of starting Jim Miller or picking up Chris Weinke.	I have the option of starting Jim Miler or picking up Chris Weinke.	154263099	1476019376187	1476019376349	o	79
301748	3246455	I have the option of starting Jim Miller or picking up Chris Weinke.	I have the option of starting Jim Miler or picking up Chris Weinke.	154263105	1476019376396	1476019376514	p	80
301748	3246455	I have the option of starting Jim Miller or picking up Chris Weinke.	I have the option of starting Jim Miler or picking up Chris Weinke.	154263113	1476019376530	1476019376733	t	84
301748	3246455	I have the option of starting Jim Miller or picking up Chris Weinke.	I have the option of starting Jim Miler or picking up Chris Weinke.	154263160	1476019376678	1476019376931	i	73
301748	3246455	I have the option of starting Jim Miller or picking up Chris Weinke.	I have the option of starting Jim Miler or picking up Chris Weinke.	154263163	1476019376758	1476019376931	o	79
301748	3246455	I have the option of starting Jim Miller or picking up Chris Weinke.	I have the option of starting Jim Miler or picking up Chris Weinke.	154263166	1476019376884	1476019376995	n	78
301748	3246455	I have the option of starting Jim Miller or picking up Chris Weinke.	I have the option of starting Jim Miler or picking up Chris Weinke.	154263169	1476019377135	1476019377249	 	32
301748	3246455	I have the option of starting Jim Miller or picking up Chris Weinke.	I have the option of starting Jim Miler or picking up Chris Weinke.	154263172	1476019377358	1476019377483	o	79
301748	3246455	I have the option of starting Jim Miller or picking up Chris Weinke.	I have the option of starting Jim Miler or picking up Chris Weinke.	154263173	1476019377514	1476019377722	f	70
301748	3246455	I have the option of starting Jim Miller or picking up Chris Weinke.	I have the option of starting Jim Miler or picking up Chris Weinke.	154263277	1476019377662	1476019377780	 	32
301748	3246455	I have the option of starting Jim Miller or picking up Chris Weinke.	I have the option of starting Jim Miler or picking up Chris Weinke.	154263281	1476019378014	1476019378161	s	83
301748	3246455	I have the option of starting Jim Miller or picking up Chris Weinke.	I have the option of starting Jim Miler or picking up Chris Weinke.	154263285	1476019378255	1476019378452	t	84
301748	3246455	I have the option of starting Jim Miller or picking up Chris Weinke.	I have the option of starting Jim Miler or picking up Chris Weinke.	154263290	1476019378396	1476019378550	a	65
301748	3246455	I have the option of starting Jim Miller or picking up Chris Weinke.	I have the option of starting Jim Miler or picking up Chris Weinke.	154263294	1476019378581	1476019378726	r	82
301748	3246455	I have the option of starting Jim Miller or picking up Chris Weinke.	I have the option of starting Jim Miler or picking up Chris Weinke.	154263296	1476019379054	1476019379215	t	84
301748	3246455	I have the option of starting Jim Miller or picking up Chris Weinke.	I have the option of starting Jim Miler or picking up Chris Weinke.	154263618	1476019379247	1476019379345	i	73
301748	3246455	I have the option of starting Jim Miller or picking up Chris Weinke.	I have the option of starting Jim Miler or picking up Chris Weinke.	154263624	1476019379392	1476019379515	n	78
301748	3246455	I have the option of starting Jim Miller or picking up Chris Weinke.	I have the option of starting Jim Miler or picking up Chris Weinke.	154263632	1476019379516	1476019379666	g	71
301748	3246455	I have the option of starting Jim Miller or picking up Chris Weinke.	I have the option of starting Jim Miler or picking up Chris Weinke.	154263637	1476019379728	1476019379870	 	32
301748	3246455	I have the option of starting Jim Miller or picking up Chris Weinke.	I have the option of starting Jim Miler or picking up Chris Weinke.	154263642	1476019380183	1476019380261	SHIFT	16
301748	3246455	I have the option of starting Jim Miller or picking up Chris Weinke.	I have the option of starting Jim Miler or picking up Chris Weinke.	154263681	1476019380443	1476019386166	SHIFT	16
301748	3246455	I have the option of starting Jim Miller or picking up Chris Weinke.	I have the option of starting Jim Miler or picking up Chris Weinke.	154263648	1476019385991	1476019386118	J	74
301748	3246455	I have the option of starting Jim Miller or picking up Chris Weinke.	I have the option of starting Jim Miler or picking up Chris Weinke.	154263683	1476019386197	1476019386311	i	73
301748	3246455	I have the option of starting Jim Miller or picking up Chris Weinke.	I have the option of starting Jim Miler or picking up Chris Weinke.	154263685	1476019386421	1476019386517	m	77
301748	3246455	I have the option of starting Jim Miller or picking up Chris Weinke.	I have the option of starting Jim Miler or picking up Chris Weinke.	154263687	1476019386595	1476019386719	 	32
301748	3246455	I have the option of starting Jim Miller or picking up Chris Weinke.	I have the option of starting Jim Miler or picking up Chris Weinke.	154263690	1476019386813	1476019387157	SHIFT	16
301748	3246455	I have the option of starting Jim Miller or picking up Chris Weinke.	I have the option of starting Jim Miler or picking up Chris Weinke.	154263688	1476019386907	1476019387032	M	77
301748	3246455	I have the option of starting Jim Miller or picking up Chris Weinke.	I have the option of starting Jim Miler or picking up Chris Weinke.	154263692	1476019387188	1476019387298	i	73
301748	3246455	I have the option of starting Jim Miller or picking up Chris Weinke.	I have the option of starting Jim Miler or picking up Chris Weinke.	154263743	1476019387469	1476019387677	l	76
301748	3246455	I have the option of starting Jim Miller or picking up Chris Weinke.	I have the option of starting Jim Miler or picking up Chris Weinke.	154263747	1476019387771	1476019387981	e	69
301748	3246455	I have the option of starting Jim Miller or picking up Chris Weinke.	I have the option of starting Jim Miler or picking up Chris Weinke.	154263751	1476019387897	1476019388063	r	82
301748	3246455	I have the option of starting Jim Miller or picking up Chris Weinke.	I have the option of starting Jim Miler or picking up Chris Weinke.	154263754	1476019388157	1476019388254	 	32
301748	3246455	I have the option of starting Jim Miller or picking up Chris Weinke.	I have the option of starting Jim Miler or picking up Chris Weinke.	154263757	1476019388410	1476019388530	o	79
301748	3246455	I have the option of starting Jim Miller or picking up Chris Weinke.	I have the option of starting Jim Miler or picking up Chris Weinke.	154263805	1476019388562	1476019388717	r	82
301748	3246455	I have the option of starting Jim Miller or picking up Chris Weinke.	I have the option of starting Jim Miler or picking up Chris Weinke.	154263812	1476019388732	1476019388831	 	32
301748	3246455	I have the option of starting Jim Miller or picking up Chris Weinke.	I have the option of starting Jim Miler or picking up Chris Weinke.	154263818	1476019389096	1476019389215	p	80
301748	3246455	I have the option of starting Jim Miller or picking up Chris Weinke.	I have the option of starting Jim Miler or picking up Chris Weinke.	154263825	1476019389418	1476019389543	i	73
301748	3246455	I have the option of starting Jim Miller or picking up Chris Weinke.	I have the option of starting Jim Miler or picking up Chris Weinke.	154263830	1476019389668	1476019389832	c	67
301748	3246455	I have the option of starting Jim Miller or picking up Chris Weinke.	I have the option of starting Jim Miler or picking up Chris Weinke.	154263852	1476019389864	1476019389965	k	75
301748	3246455	I have the option of starting Jim Miller or picking up Chris Weinke.	I have the option of starting Jim Miler or picking up Chris Weinke.	154263855	1476019390090	1476019390185	i	73
301748	3246455	I have the option of starting Jim Miller or picking up Chris Weinke.	I have the option of starting Jim Miler or picking up Chris Weinke.	154263860	1476019390201	1476019390319	n	78
301748	3246455	I have the option of starting Jim Miller or picking up Chris Weinke.	I have the option of starting Jim Miler or picking up Chris Weinke.	154263864	1476019390413	1476019390629	g	71
301748	3246455	I have the option of starting Jim Miller or picking up Chris Weinke.	I have the option of starting Jim Miler or picking up Chris Weinke.	154263911	1476019390581	1476019390749	 	32
301748	3246455	I have the option of starting Jim Miller or picking up Chris Weinke.	I have the option of starting Jim Miler or picking up Chris Weinke.	154263915	1476019390714	1476019391032	u	85
301748	3246455	I have the option of starting Jim Miller or picking up Chris Weinke.	I have the option of starting Jim Miler or picking up Chris Weinke.	154263913	1476019390875	1476019391001	p	80
301748	3246455	I have the option of starting Jim Miller or picking up Chris Weinke.	I have the option of starting Jim Miler or picking up Chris Weinke.	154263917	1476019391063	1476019391212	 	32
301748	3246455	I have the option of starting Jim Miller or picking up Chris Weinke.	I have the option of starting Jim Miler or picking up Chris Weinke.	154263921	1476019391477	1476019391635	SHIFT	16
301748	3246455	I have the option of starting Jim Miller or picking up Chris Weinke.	I have the option of starting Jim Miler or picking up Chris Weinke.	154263925	1476019391524	1476019391698	C	67
301748	3246455	I have the option of starting Jim Miller or picking up Chris Weinke.	I have the option of starting Jim Miler or picking up Chris Weinke.	154263928	1476019391807	1476019391885	h	72
301748	3246455	I have the option of starting Jim Miller or picking up Chris Weinke.	I have the option of starting Jim Miler or picking up Chris Weinke.	154264031	1476019392121	1476019392249	r	82
301748	3246455	I have the option of starting Jim Miller or picking up Chris Weinke.	I have the option of starting Jim Miler or picking up Chris Weinke.	154264035	1476019392264	1476019392378	i	73
301748	3246455	I have the option of starting Jim Miller or picking up Chris Weinke.	I have the option of starting Jim Miler or picking up Chris Weinke.	154264039	1476019392425	1476019392566	s	83
301748	3246455	I have the option of starting Jim Miller or picking up Chris Weinke.	I have the option of starting Jim Miler or picking up Chris Weinke.	154264041	1476019392582	1476019392696	 	32
301748	3246455	I have the option of starting Jim Miller or picking up Chris Weinke.	I have the option of starting Jim Miler or picking up Chris Weinke.	154264042	1476019392901	1476019393154	SHIFT	16
301748	3246455	I have the option of starting Jim Miller or picking up Chris Weinke.	I have the option of starting Jim Miler or picking up Chris Weinke.	154264111	1476019393483	1476019393828	SHIFT	16
301748	3246455	I have the option of starting Jim Miller or picking up Chris Weinke.	I have the option of starting Jim Miler or picking up Chris Weinke.	154264045	1476019393624	1476019393797	W	87
301748	3246455	I have the option of starting Jim Miller or picking up Chris Weinke.	I have the option of starting Jim Miler or picking up Chris Weinke.	154264115	1476019394063	1476019394212	e	69
301748	3246455	I have the option of starting Jim Miller or picking up Chris Weinke.	I have the option of starting Jim Miler or picking up Chris Weinke.	154264118	1476019394777	1476019394896	i	73
301748	3246455	I have the option of starting Jim Miller or picking up Chris Weinke.	I have the option of starting Jim Miler or picking up Chris Weinke.	154264123	1476019395193	1476019395299	n	78
301748	3246455	I have the option of starting Jim Miller or picking up Chris Weinke.	I have the option of starting Jim Miler or picking up Chris Weinke.	154264129	1476019395439	1476019395550	k	75
301748	3246455	I have the option of starting Jim Miller or picking up Chris Weinke.	I have the option of starting Jim Miler or picking up Chris Weinke.	154264132	1476019395596	1476019395763	e	69
301748	3246455	I have the option of starting Jim Miller or picking up Chris Weinke.	I have the option of starting Jim Miler or picking up Chris Weinke.	154264140	1476019395889	1476019395986	.	190
301748	3246478	Nothing new from Mom.	Nothing new from Mom.	154264307	1476019398881	1476019399344	SHIFT	16
301748	3246478	Nothing new from Mom.	Nothing new from Mom.	154264304	1476019399131	1476019399282	N	78
301748	3246478	Nothing new from Mom.	Nothing new from Mom.	154264312	1476019399532	1476019399676	o	79
301748	3246478	Nothing new from Mom.	Nothing new from Mom.	154264317	1476019399801	1476019400008	t	84
301748	3246478	Nothing new from Mom.	Nothing new from Mom.	154264322	1476019399961	1476019400031	h	72
301748	3246478	Nothing new from Mom.	Nothing new from Mom.	154264327	1476019400039	1476019400211	i	73
301748	3246478	Nothing new from Mom.	Nothing new from Mom.	154264362	1476019400151	1476019400268	n	78
301748	3246478	Nothing new from Mom.	Nothing new from Mom.	154264363	1476019400362	1476019400570	g	71
301748	3246478	Nothing new from Mom.	Nothing new from Mom.	154264364	1476019400527	1476019400652	 	32
301748	3246478	Nothing new from Mom.	Nothing new from Mom.	154264365	1476019400730	1476019400851	n	78
301748	3246478	Nothing new from Mom.	Nothing new from Mom.	154264366	1476019400851	1476019401094	e	69
301748	3246478	Nothing new from Mom.	Nothing new from Mom.	154264387	1476019400962	1476019401127	w	87
301748	3246478	Nothing new from Mom.	Nothing new from Mom.	154264388	1476019401143	1476019401263	 	32
301748	3246478	Nothing new from Mom.	Nothing new from Mom.	154264390	1476019401295	1476019401415	f	70
301748	3246478	Nothing new from Mom.	Nothing new from Mom.	154264392	1476019401524	1476019401686	r	82
301748	3246478	Nothing new from Mom.	Nothing new from Mom.	154264395	1476019401635	1476019401734	o	79
301748	3246478	Nothing new from Mom.	Nothing new from Mom.	154264398	1476019401781	1476019401896	m	77
301748	3246478	Nothing new from Mom.	Nothing new from Mom.	154264506	1476019401960	1476019402047	 	32
301748	3246478	Nothing new from Mom.	Nothing new from Mom.	154264511	1476019402695	1476019403187	SHIFT	16
301748	3246478	Nothing new from Mom.	Nothing new from Mom.	154264508	1476019402945	1476019403078	M	77
301748	3246478	Nothing new from Mom.	Nothing new from Mom.	154264515	1476019403234	1476019403367	o	79
301748	3246478	Nothing new from Mom.	Nothing new from Mom.	154264519	1476019403445	1476019403563	m	77
301748	3246478	Nothing new from Mom.	Nothing new from Mom.	154264521	1476019403719	1476019403820	.	190
301748	3246488	I am staying at a Hotel.	I am staying at a Hotel.	154264706	1476019407307	1476019408125	SHIFT	16
301748	3246488	I am staying at a Hotel.	I am staying at a Hotel.	154264704	1476019407935	1476019408062	I	73
301748	3246488	I am staying at a Hotel.	I am staying at a Hotel.	154264710	1476019408172	1476019408315	 	32
301748	3246488	I am staying at a Hotel.	I am staying at a Hotel.	154264713	1476019408643	1476019408843	a	65
301748	3246488	I am staying at a Hotel.	I am staying at a Hotel.	154264716	1476019408794	1476019408896	m	77
301748	3246488	I am staying at a Hotel.	I am staying at a Hotel.	154264720	1476019408990	1476019409086	 	32
301748	3246488	I am staying at a Hotel.	I am staying at a Hotel.	154264756	1476019409430	1476019409593	s	83
301748	3246488	I am staying at a Hotel.	I am staying at a Hotel.	154264758	1476019409687	1476019409866	t	84
301748	3246488	I am staying at a Hotel.	I am staying at a Hotel.	154264760	1476019409800	1476019409928	a	65
301748	3246488	I am staying at a Hotel.	I am staying at a Hotel.	154264761	1476019410321	1476019410450	y	89
301748	3246488	I am staying at a Hotel.	I am staying at a Hotel.	154264763	1476019410528	1476019410661	i	73
301748	3246488	I am staying at a Hotel.	I am staying at a Hotel.	154264790	1476019410708	1476019410817	n	78
301748	3246488	I am staying at a Hotel.	I am staying at a Hotel.	154264791	1476019410926	1476019411093	g	71
301748	3246488	I am staying at a Hotel.	I am staying at a Hotel.	154264792	1476019411124	1476019411245	 	32
301748	3246488	I am staying at a Hotel.	I am staying at a Hotel.	154264793	1476019411292	1476019411443	a	65
301748	3246488	I am staying at a Hotel.	I am staying at a Hotel.	154264794	1476019411459	1476019411594	t	84
301748	3246488	I am staying at a Hotel.	I am staying at a Hotel.	154264846	1476019411705	1476019411786	 	32
301748	3246488	I am staying at a Hotel.	I am staying at a Hotel.	154264849	1476019411848	1476019412025	a	65
301748	3246488	I am staying at a Hotel.	I am staying at a Hotel.	154264851	1476019412072	1476019412153	 	32
301748	3246488	I am staying at a Hotel.	I am staying at a Hotel.	154264855	1476019412466	1476019412765	SHIFT	16
301748	3246488	I am staying at a Hotel.	I am staying at a Hotel.	154264854	1476019412606	1476019412718	H	72
301748	3246488	I am staying at a Hotel.	I am staying at a Hotel.	154264856	1476019412812	1476019412962	o	79
301748	3246488	I am staying at a Hotel.	I am staying at a Hotel.	154264888	1476019413168	1476019413309	t	84
301748	3246488	I am staying at a Hotel.	I am staying at a Hotel.	154264890	1476019413309	1476019413445	e	69
301748	3246488	I am staying at a Hotel.	I am staying at a Hotel.	154264891	1476019413461	1476019413563	l	76
301748	3246488	I am staying at a Hotel.	I am staying at a Hotel.	154264894	1476019413688	1476019413768	.	190
301748	3246498	The partial list announcement came.	The partial list announcement came.	154265028	1476019416631	1476019416829	SHIFT	16
301748	3246498	The partial list announcement came.	The partial list announcement came.	154265030	1476019416709	1476019416860	T	84
301748	3246498	The partial list announcement came.	The partial list announcement came.	154265032	1476019416969	1476019417053	h	72
301748	3246498	The partial list announcement came.	The partial list announcement came.	154265033	1476019417085	1476019417279	e	69
301748	3246498	The partial list announcement came.	The partial list announcement came.	154265034	1476019417248	1476019417334	 	32
301748	3246498	The partial list announcement came.	The partial list announcement came.	154265035	1476019417412	1476019417567	p	80
301748	3246498	The partial list announcement came.	The partial list announcement came.	154265060	1476019417598	1476019417764	a	65
301748	3246498	The partial list announcement came.	The partial list announcement came.	154265062	1476019417780	1476019417880	r	82
301748	3246498	The partial list announcement came.	The partial list announcement came.	154265065	1476019418020	1476019418151	t	84
301748	3246498	The partial list announcement came.	The partial list announcement came.	154265068	1476019418214	1476019418303	i	73
301748	3246498	The partial list announcement came.	The partial list announcement came.	154265072	1476019418350	1476019418534	a	65
301748	3246498	The partial list announcement came.	The partial list announcement came.	154265133	1476019418492	1476019418596	l	76
301748	3246498	The partial list announcement came.	The partial list announcement came.	154265134	1476019418959	1476019419098	 	32
301748	3246498	The partial list announcement came.	The partial list announcement came.	154265135	1476019419192	1476019419312	l	76
301748	3246498	The partial list announcement came.	The partial list announcement came.	154265136	1476019419562	1476019419679	i	73
301748	3246498	The partial list announcement came.	The partial list announcement came.	154265137	1476019419742	1476019419863	s	83
301748	3246498	The partial list announcement came.	The partial list announcement came.	154265139	1476019419894	1476019420013	t	84
301748	3246498	The partial list announcement came.	The partial list announcement came.	154265177	1476019420077	1476019420195	 	32
301748	3246498	The partial list announcement came.	The partial list announcement came.	154265179	1476019420666	1476019420798	a	65
301748	3246498	The partial list announcement came.	The partial list announcement came.	154265181	1476019420813	1476019420913	n	78
301748	3246498	The partial list announcement came.	The partial list announcement came.	154265183	1476019421007	1476019421086	n	78
301748	3246498	The partial list announcement came.	The partial list announcement came.	154265184	1476019421226	1476019421396	o	79
301748	3246498	The partial list announcement came.	The partial list announcement came.	154265242	1476019421331	1476019421475	u	85
301748	3246498	The partial list announcement came.	The partial list announcement came.	154265245	1476019421663	1476019421761	c	67
301748	3246498	The partial list announcement came.	The partial list announcement came.	154265249	1476019421886	1476019422047	e	69
301748	3246498	The partial list announcement came.	The partial list announcement came.	154265250	1476019422078	1476019422164	m	77
301748	3246498	The partial list announcement came.	The partial list announcement came.	154265251	1476019422685	1476019422830	e	69
301748	3246498	The partial list announcement came.	The partial list announcement came.	154265252	1476019422877	1476019422986	n	78
301748	3246498	The partial list announcement came.	The partial list announcement came.	154265353	1476019423020	1476019423179	t	84
301748	3246498	The partial list announcement came.	The partial list announcement came.	154265355	1476019423461	1476019423547	BKSP	8
301748	3246498	The partial list announcement came.	The partial list announcement came.	154265356	1476019423659	1476019423742	BKSP	8
301748	3246498	The partial list announcement came.	The partial list announcement came.	154265357	1476019423809	1476019423898	BKSP	8
301748	3246498	The partial list announcement came.	The partial list announcement came.	154265359	1476019424351	1476019424436	BKSP	8
301748	3246498	The partial list announcement came.	The partial list announcement came.	154265361	1476019425127	1476019425245	m	77
301748	3246498	The partial list announcement came.	The partial list announcement came.	154265363	1476019425307	1476019425444	e	69
301748	3246498	The partial list announcement came.	The partial list announcement came.	154265366	1476019425444	1476019425562	n	78
301748	3246498	The partial list announcement came.	The partial list announcement came.	154265367	1476019425562	1476019425708	t	84
301748	3246498	The partial list announcement came.	The partial list announcement came.	154265604	1476019426038	1476019426210	 	32
301748	3246498	The partial list announcement came.	The partial list announcement came.	154265605	1476019427104	1476019427197	BKSP	8
301748	3246498	The partial list announcement came.	The partial list announcement came.	154265609	1476019427306	1476019427385	BKSP	8
301748	3246498	The partial list announcement came.	The partial list announcement came.	154265612	1476019427464	1476019427538	BKSP	8
301748	3246498	The partial list announcement came.	The partial list announcement came.	154265618	1476019427640	1476019427718	BKSP	8
301748	3246498	The partial list announcement came.	The partial list announcement came.	154265621	1476019427799	1476019427881	BKSP	8
301748	3246498	The partial list announcement came.	The partial list announcement came.	154265624	1476019427965	1476019428047	BKSP	8
301748	3246498	The partial list announcement came.	The partial list announcement came.	154265626	1476019428140	1476019428218	BKSP	8
301748	3246498	The partial list announcement came.	The partial list announcement came.	154265627	1476019428984	1476019429069	BKSP	8
301748	3246498	The partial list announcement came.	The partial list announcement came.	154265628	1476019430291	1476019430426	u	85
301748	3246498	The partial list announcement came.	The partial list announcement came.	154265630	1476019430645	1476019430765	n	78
301748	3246498	The partial list announcement came.	The partial list announcement came.	154265632	1476019430843	1476019430946	c	67
301748	3246498	The partial list announcement came.	The partial list announcement came.	154265634	1476019431149	1476019431275	e	69
301748	3246498	The partial list announcement came.	The partial list announcement came.	154265654	1476019431527	1476019431615	m	77
301748	3246498	The partial list announcement came.	The partial list announcement came.	154265656	1476019431709	1476019431875	e	69
301748	3246498	The partial list announcement came.	The partial list announcement came.	154265660	1476019431828	1476019431926	n	78
301748	3246498	The partial list announcement came.	The partial list announcement came.	154265663	1476019431926	1476019432046	t	84
301748	3246498	The partial list announcement came.	The partial list announcement came.	154265666	1476019432171	1476019432250	 	32
301748	3246498	The partial list announcement came.	The partial list announcement came.	154265697	1476019432344	1476019432509	c	67
301748	3246498	The partial list announcement came.	The partial list announcement came.	154265699	1476019432493	1476019432661	a	65
301748	3246498	The partial list announcement came.	The partial list announcement came.	154265701	1476019432692	1476019432796	m	77
301748	3246498	The partial list announcement came.	The partial list announcement came.	154265703	1476019432827	1476019432950	e	69
301748	3246498	The partial list announcement came.	The partial list announcement came.	154265706	1476019433059	1476019433178	.	190
301748	3246516	Would you mind taking the lead on this?	Would you mind taking the lead on this?	154265823	1476019435755	1476019435931	SHIFT	16
301748	3246516	Would you mind taking the lead on this?	Would you mind taking the lead on this?	154265825	1476019435812	1476019435947	W	87
301748	3246516	Would you mind taking the lead on this?	Would you mind taking the lead on this?	154265827	1476019436135	1476019436312	o	79
301748	3246516	Would you mind taking the lead on this?	Would you mind taking the lead on this?	154265831	1476019436265	1476019436378	u	85
301748	3246516	Would you mind taking the lead on this?	Would you mind taking the lead on this?	154265833	1476019436534	1476019436630	l	76
301748	3246516	Would you mind taking the lead on this?	Would you mind taking the lead on this?	154265835	1476019436676	1476019436827	d	68
301748	3246516	Would you mind taking the lead on this?	Would you mind taking the lead on this?	154265850	1476019436828	1476019436918	 	32
301748	3246516	Would you mind taking the lead on this?	Would you mind taking the lead on this?	154265852	1476019437011	1476019437167	y	89
301748	3246516	Would you mind taking the lead on this?	Would you mind taking the lead on this?	154265855	1476019437133	1476019437297	o	79
301748	3246516	Would you mind taking the lead on this?	Would you mind taking the lead on this?	154265859	1476019437297	1476019437379	u	85
301748	3246516	Would you mind taking the lead on this?	Would you mind taking the lead on this?	154265863	1476019437394	1476019437529	 	32
301748	3246516	Would you mind taking the lead on this?	Would you mind taking the lead on this?	154265908	1476019437702	1476019437799	m	77
301748	3246516	Would you mind taking the lead on this?	Would you mind taking the lead on this?	154265911	1476019437878	1476019437977	i	73
301748	3246516	Would you mind taking the lead on this?	Would you mind taking the lead on this?	154265917	1476019438055	1476019438180	n	78
301748	3246516	Would you mind taking the lead on this?	Would you mind taking the lead on this?	154265924	1476019438212	1476019438359	d	68
301748	3246516	Would you mind taking the lead on this?	Would you mind taking the lead on this?	154265928	1476019438375	1476019438510	 	32
301748	3246516	Would you mind taking the lead on this?	Would you mind taking the lead on this?	154265948	1476019438542	1476019438779	t	84
301748	3246516	Would you mind taking the lead on this?	Would you mind taking the lead on this?	154265950	1476019438692	1476019438841	a	65
301748	3246516	Would you mind taking the lead on this?	Would you mind taking the lead on this?	154265951	1476019438780	1476019438880	k	75
301748	3246516	Would you mind taking the lead on this?	Would you mind taking the lead on this?	154265954	1476019439007	1476019439097	i	73
301748	3246516	Would you mind taking the lead on this?	Would you mind taking the lead on this?	154265955	1476019439160	1476019439261	n	78
301748	3246516	Would you mind taking the lead on this?	Would you mind taking the lead on this?	154265978	1476019439481	1476019439519	g	71
301748	3246516	Would you mind taking the lead on this?	Would you mind taking the lead on this?	154265981	1476019439768	1476019439881	h	84
301748	3246516	Would you mind taking the lead on this?	Would you mind taking the lead on this?	154265985	1476019439853	1476019440296	e	69
301748	3246516	Would you mind taking the lead on this?	Would you mind taking the lead on this?	154266032	1476019439990	1476019440349	 	32
301748	3246516	Would you mind taking the lead on this?	Would you mind taking the lead on this?	154266037	1476019440353	1476019440358	m	77
301748	3246516	Would you mind taking the lead on this?	Would you mind taking the lead on this?	154266044	1476019440452	1476019440626	e	69
301748	3246516	Would you mind taking the lead on this?	Would you mind taking the lead on this?	154266047	1476019440591	1476019440705	a	65
301748	3246516	Would you mind taking the lead on this?	Would you mind taking the lead on this?	154266053	1476019440892	1476019441001	BKSP	8
301748	3246516	Would you mind taking the lead on this?	Would you mind taking the lead on this?	154266056	1476019441079	1476019441287	BKSP	8
301748	3246516	Would you mind taking the lead on this?	Would you mind taking the lead on this?	154266059	1476019441586	1476019441652	BKSP	8
301748	3246516	Would you mind taking the lead on this?	Would you mind taking the lead on this?	154266061	1476019441858	1476019441994	l	76
301748	3246516	Would you mind taking the lead on this?	Would you mind taking the lead on this?	154266086	1476019441949	1476019442102	e	69
301748	3246516	Would you mind taking the lead on this?	Would you mind taking the lead on this?	154266087	1476019442051	1476019442212	a	65
301748	3246516	Would you mind taking the lead on this?	Would you mind taking the lead on this?	154266090	1476019442368	1476019442499	d	68
301748	3246516	Would you mind taking the lead on this?	Would you mind taking the lead on this?	154266091	1476019442530	1476019442660	 	32
301748	3246516	Would you mind taking the lead on this?	Would you mind taking the lead on this?	154266095	1476019442691	1476019442801	o	79
301748	3246516	Would you mind taking the lead on this?	Would you mind taking the lead on this?	154266099	1476019442817	1476019442933	n	78
301748	3246516	Would you mind taking the lead on this?	Would you mind taking the lead on this?	154266133	1476019443049	1476019443134	 	32
301748	3246516	Would you mind taking the lead on this?	Would you mind taking the lead on this?	154266137	1476019443274	1476019443424	t	84
301748	3246516	Would you mind taking the lead on this?	Would you mind taking the lead on this?	154266140	1476019443380	1476019443493	h	72
301748	3246516	Would you mind taking the lead on this?	Would you mind taking the lead on this?	154266142	1476019443540	1476019443676	i	73
301748	3246516	Would you mind taking the lead on this?	Would you mind taking the lead on this?	154266144	1476019443676	1476019443842	s	83
301748	3246516	Would you mind taking the lead on this?	Would you mind taking the lead on this?	154266178	1476019444202	1476019444631	SHIFT	16
301748	3246516	Would you mind taking the lead on this?	Would you mind taking the lead on this?	154266176	1476019444347	1476019444459	?	191
301748	3246529	I am out of town on business tonight.	I am out of town on business tonight.	154266430	1476019449825	1476019450328	SHIFT	16
301748	3246529	I am out of town on business tonight.	I am out of town on business tonight.	154266427	1476019450171	1476019450281	I	73
301748	3246529	I am out of town on business tonight.	I am out of town on business tonight.	154266434	1476019450437	1476019450563	 	32
301748	3246529	I am out of town on business tonight.	I am out of town on business tonight.	154266439	1476019450610	1476019450828	a	65
301748	3246529	I am out of town on business tonight.	I am out of town on business tonight.	154266443	1476019450774	1476019450863	m	77
301748	3246529	I am out of town on business tonight.	I am out of town on business tonight.	154266449	1476019450941	1476019451077	 	32
301748	3246529	I am out of town on business tonight.	I am out of town on business tonight.	154266483	1476019451219	1476019451381	o	79
301748	3246529	I am out of town on business tonight.	I am out of town on business tonight.	154266484	1476019451329	1476019451428	u	85
301748	3246529	I am out of town on business tonight.	I am out of town on business tonight.	154266485	1476019451491	1476019451627	t	84
301748	3246529	I am out of town on business tonight.	I am out of town on business tonight.	154266486	1476019451642	1476019451766	 	32
301748	3246529	I am out of town on business tonight.	I am out of town on business tonight.	154266487	1476019451829	1476019451964	o	79
301748	3246529	I am out of town on business tonight.	I am out of town on business tonight.	154266548	1476019451996	1476019452173	f	70
301748	3246529	I am out of town on business tonight.	I am out of town on business tonight.	154266552	1476019452157	1476019452300	 	32
301748	3246529	I am out of town on business tonight.	I am out of town on business tonight.	154266556	1476019452659	1476019452794	t	84
301748	3246529	I am out of town on business tonight.	I am out of town on business tonight.	154266562	1476019452825	1476019452944	o	79
301748	3246529	I am out of town on business tonight.	I am out of town on business tonight.	154266568	1476019452975	1476019453181	w	87
301748	3246529	I am out of town on business tonight.	I am out of town on business tonight.	154266676	1476019453146	1476019453260	n	78
301748	3246529	I am out of town on business tonight.	I am out of town on business tonight.	154266679	1476019453369	1476019453441	 	32
301748	3246529	I am out of town on business tonight.	I am out of town on business tonight.	154266683	1476019453483	1476019453579	o	79
301748	3246529	I am out of town on business tonight.	I am out of town on business tonight.	154266685	1476019453610	1476019453760	n	78
301748	3246529	I am out of town on business tonight.	I am out of town on business tonight.	154266688	1476019453822	1476019453949	 	32
301748	3246529	I am out of town on business tonight.	I am out of town on business tonight.	154266690	1476019455060	1476019455215	b	66
301748	3246529	I am out of town on business tonight.	I am out of town on business tonight.	154266710	1476019455262	1476019455360	u	85
301748	3246529	I am out of town on business tonight.	I am out of town on business tonight.	154266713	1476019455438	1476019455614	s	83
301748	3246529	I am out of town on business tonight.	I am out of town on business tonight.	154266717	1476019455550	1476019455681	i	73
301748	3246529	I am out of town on business tonight.	I am out of town on business tonight.	154266721	1476019455744	1476019455846	n	78
301748	3246529	I am out of town on business tonight.	I am out of town on business tonight.	154266726	1476019455940	1476019456029	e	69
301748	3246529	I am out of town on business tonight.	I am out of town on business tonight.	154266757	1476019456238	1476019456302	s	83
301748	3246529	I am out of town on business tonight.	I am out of town on business tonight.	154266760	1476019456392	1476019456511	s	83
301748	3246529	I am out of town on business tonight.	I am out of town on business tonight.	154266767	1476019456605	1476019456732	 	32
301748	3246529	I am out of town on business tonight.	I am out of town on business tonight.	154266772	1476019456873	1476019457047	t	84
301748	3246529	I am out of town on business tonight.	I am out of town on business tonight.	154266814	1476019456994	1476019457110	o	79
301748	3246529	I am out of town on business tonight.	I am out of town on business tonight.	154266819	1476019457173	1476019457279	n	78
301748	3246529	I am out of town on business tonight.	I am out of town on business tonight.	154266826	1476019457357	1476019457462	i	73
301748	3246529	I am out of town on business tonight.	I am out of town on business tonight.	154266831	1476019457509	1476019457660	g	71
301748	3246529	I am out of town on business tonight.	I am out of town on business tonight.	154266836	1476019457676	1476019457764	h	72
301748	3246529	I am out of town on business tonight.	I am out of town on business tonight.	154266841	1476019457796	1476019457899	y	84
301748	3246529	I am out of town on business tonight.	I am out of town on business tonight.	154266954	1476019458590	1476019458696	BKSP	8
301748	3246529	I am out of town on business tonight.	I am out of town on business tonight.	154266957	1476019459593	1476019459663	.	190
301748	3246540	But thank you for the offer.	But thank you for the offer.	154267123	1476019462527	1476019462813	SHIFT	16
301748	3246540	But thank you for the offer.	But thank you for the offer.	154267126	1476019462668	1476019462844	B	66
301748	3246540	But thank you for the offer.	But thank you for the offer.	154267128	1476019462969	1476019463067	u	85
301748	3246540	But thank you for the offer.	But thank you for the offer.	154267129	1476019463051	1476019463227	t	84
301748	3246540	But thank you for the offer.	But thank you for the offer.	154267130	1476019463259	1476019463346	 	32
301748	3246540	But thank you for the offer.	But thank you for the offer.	154267131	1476019463393	1476019463531	t	84
301748	3246540	But thank you for the offer.	But thank you for the offer.	154267174	1476019463860	1476019463991	h	72
301748	3246540	But thank you for the offer.	But thank you for the offer.	154267179	1476019464053	1476019464218	a	65
301748	3246540	But thank you for the offer.	But thank you for the offer.	154267181	1476019464179	1476019464311	n	78
301748	3246540	But thank you for the offer.	But thank you for the offer.	154267183	1476019464242	1476019464343	k	75
301748	3246540	But thank you for the offer.	But thank you for the offer.	154267185	1476019464639	1476019464760	 	32
301748	3246540	But thank you for the offer.	But thank you for the offer.	154267202	1476019464886	1476019464999	y	89
301748	3246540	But thank you for the offer.	But thank you for the offer.	154267206	1476019464999	1476019465187	o	79
301748	3246540	But thank you for the offer.	But thank you for the offer.	154267210	1476019465144	1476019465243	u	85
301748	3246540	But thank you for the offer.	But thank you for the offer.	154267213	1476019465321	1476019465401	 	32
301748	3246540	But thank you for the offer.	But thank you for the offer.	154267216	1476019465417	1476019465546	f	70
301748	3246540	But thank you for the offer.	But thank you for the offer.	154267244	1476019465514	1476019465641	o	79
301748	3246540	But thank you for the offer.	But thank you for the offer.	154267246	1476019465641	1476019465781	r	82
301748	3246540	But thank you for the offer.	But thank you for the offer.	154267248	1476019465746	1476019465860	 	32
301748	3246540	But thank you for the offer.	But thank you for the offer.	154267249	1476019465956	1476019466159	t	84
301748	3246540	But thank you for the offer.	But thank you for the offer.	154267251	1476019466062	1476019466175	h	72
301748	3246540	But thank you for the offer.	But thank you for the offer.	154267257	1476019466268	1476019466412	e	69
301748	3246540	But thank you for the offer.	But thank you for the offer.	154267298	1476019466460	1476019466527	 	32
301748	3246540	But thank you for the offer.	But thank you for the offer.	154267301	1476019466761	1476019466843	o	79
301748	3246540	But thank you for the offer.	But thank you for the offer.	154267304	1476019466859	1476019466962	f	70
301748	3246540	But thank you for the offer.	But thank you for the offer.	154267307	1476019467291	1476019467394	f	70
301748	3246540	But thank you for the offer.	But thank you for the offer.	154267308	1476019467504	1476019467675	e	69
301748	3246540	But thank you for the offer.	But thank you for the offer.	154267326	1476019467600	1476019467759	r	82
301748	3246540	But thank you for the offer.	But thank you for the offer.	154267330	1476019467821	1476019467917	.	190
