PARTICIPANT_ID	TEST_SECTION_ID	SENTENCE	USER_INPUT	KEYSTROKE_ID	PRESS_TIME	RELEASE_TIME	LETTER	KEYCODE
377854	4077382	Brcko had been proposed as another site for a safe area.	Brock had been proposed a another site for a safe area. 	193696732	1477168267523	1477168267869	SHIFT	16
377854	4077382	Brcko had been proposed as another site for a safe area.	Brock had been proposed a another site for a safe area. 	193696729	1477168267702	1477168267791	B	66
377854	4077382	Brcko had been proposed as another site for a safe area.	Brock had been proposed a another site for a safe area. 	193696734	1477168268882	1477168269008	r	82
377854	4077382	Brcko had been proposed as another site for a safe area.	Brock had been proposed a another site for a safe area. 	193696738	1477168269055	1477168269197	o	79
377854	4077382	Brcko had been proposed as another site for a safe area.	Brock had been proposed a another site for a safe area. 	193696741	1477168269244	1477168269405	c	67
377854	4077382	Brcko had been proposed as another site for a safe area.	Brock had been proposed a another site for a safe area. 	193696775	1477168269389	1477168269530	k	75
377854	4077382	Brcko had been proposed as another site for a safe area.	Brock had been proposed a another site for a safe area. 	193696778	1477168269686	1477168269865	 	32
377854	4077382	Brcko had been proposed as another site for a safe area.	Brock had been proposed a another site for a safe area. 	193696783	1477168270016	1477168270134	h	72
377854	4077382	Brcko had been proposed as another site for a safe area.	Brock had been proposed a another site for a safe area. 	193696788	1477168270078	1477168270320	a	65
377854	4077382	Brcko had been proposed as another site for a safe area.	Brock had been proposed a another site for a safe area. 	193696792	1477168271010	1477168271171	d	68
377854	4077382	Brcko had been proposed as another site for a safe area.	Brock had been proposed a another site for a safe area. 	193696797	1477168271141	1477168271305	 	32
377854	4077382	Brcko had been proposed as another site for a safe area.	Brock had been proposed a another site for a safe area. 	193696799	1477168271368	1477168271484	b	66
377854	4077382	Brcko had been proposed as another site for a safe area.	Brock had been proposed a another site for a safe area. 	193696801	1477168271515	1477168271610	e	69
377854	4077382	Brcko had been proposed as another site for a safe area.	Brock had been proposed a another site for a safe area. 	193696804	1477168271672	1477168271787	e	69
377854	4077382	Brcko had been proposed as another site for a safe area.	Brock had been proposed a another site for a safe area. 	193696808	1477168271805	1477168271973	n	78
377854	4077382	Brcko had been proposed as another site for a safe area.	Brock had been proposed a another site for a safe area. 	193696851	1477168271952	1477168272103	 	32
377854	4077382	Brcko had been proposed as another site for a safe area.	Brock had been proposed a another site for a safe area. 	193696853	1477168272212	1477168272342	p	80
377854	4077382	Brcko had been proposed as another site for a safe area.	Brock had been proposed a another site for a safe area. 	193696854	1477168272373	1477168272547	r	82
377854	4077382	Brcko had been proposed as another site for a safe area.	Brock had been proposed a another site for a safe area. 	193696856	1477168272535	1477168272701	o	79
377854	4077382	Brcko had been proposed as another site for a safe area.	Brock had been proposed a another site for a safe area. 	193696860	1477168273321	1477168273449	p	80
377854	4077382	Brcko had been proposed as another site for a safe area.	Brock had been proposed a another site for a safe area. 	193696863	1477168273574	1477168273659	o	79
377854	4077382	Brcko had been proposed as another site for a safe area.	Brock had been proposed a another site for a safe area. 	193696901	1477168274056	1477168274221	s	83
377854	4077382	Brcko had been proposed as another site for a safe area.	Brock had been proposed a another site for a safe area. 	193696902	1477168274322	1477168274441	e	69
377854	4077382	Brcko had been proposed as another site for a safe area.	Brock had been proposed a another site for a safe area. 	193696903	1477168274566	1477168274691	d	68
377854	4077382	Brcko had been proposed as another site for a safe area.	Brock had been proposed a another site for a safe area. 	193696904	1477168274722	1477168274839	 	32
377854	4077382	Brcko had been proposed as another site for a safe area.	Brock had been proposed a another site for a safe area. 	193696905	1477168275099	1477168275240	a	65
377854	4077382	Brcko had been proposed as another site for a safe area.	Brock had been proposed a another site for a safe area. 	193696935	1477168275510	1477168275695	 	32
377854	4077382	Brcko had been proposed as another site for a safe area.	Brock had been proposed a another site for a safe area. 	193696938	1477168275711	1477168275871	a	65
377854	4077382	Brcko had been proposed as another site for a safe area.	Brock had been proposed a another site for a safe area. 	193696942	1477168275965	1477168276083	n	78
377854	4077382	Brcko had been proposed as another site for a safe area.	Brock had been proposed a another site for a safe area. 	193696946	1477168276177	1477168276314	o	79
377854	4077382	Brcko had been proposed as another site for a safe area.	Brock had been proposed a another site for a safe area. 	193696951	1477168276334	1477168276449	t	84
377854	4077382	Brcko had been proposed as another site for a safe area.	Brock had been proposed a another site for a safe area. 	193697012	1477168276478	1477168276599	h	72
377854	4077382	Brcko had been proposed as another site for a safe area.	Brock had been proposed a another site for a safe area. 	193697015	1477168276709	1477168276938	e	69
377854	4077382	Brcko had been proposed as another site for a safe area.	Brock had been proposed a another site for a safe area. 	193697018	1477168276905	1477168277070	r	82
377854	4077382	Brcko had been proposed as another site for a safe area.	Brock had been proposed a another site for a safe area. 	193697021	1477168277070	1477168277229	 	32
377854	4077382	Brcko had been proposed as another site for a safe area.	Brock had been proposed a another site for a safe area. 	193697024	1477168277388	1477168277523	a	65
377854	4077382	Brcko had been proposed as another site for a safe area.	Brock had been proposed a another site for a safe area. 	193697039	1477168277736	1477168277861	BKSP	8
377854	4077382	Brcko had been proposed as another site for a safe area.	Brock had been proposed a another site for a safe area. 	193697040	1477168277852	1477168278001	s	83
377854	4077382	Brcko had been proposed as another site for a safe area.	Brock had been proposed a another site for a safe area. 	193697041	1477168278173	1477168278272	t	84
377854	4077382	Brcko had been proposed as another site for a safe area.	Brock had been proposed a another site for a safe area. 	193697042	1477168278559	1477168278642	BKSP	8
377854	4077382	Brcko had been proposed as another site for a safe area.	Brock had been proposed a another site for a safe area. 	193697043	1477168278966	1477168279099	t	84
377854	4077382	Brcko had been proposed as another site for a safe area.	Brock had been proposed a another site for a safe area. 	193697046	1477168279437	1477168279565	BKSP	8
377854	4077382	Brcko had been proposed as another site for a safe area.	Brock had been proposed a another site for a safe area. 	193697049	1477168279831	1477168279966	i	73
377854	4077382	Brcko had been proposed as another site for a safe area.	Brock had been proposed a another site for a safe area. 	193697074	1477168279951	1477168280086	t	84
377854	4077382	Brcko had been proposed as another site for a safe area.	Brock had been proposed a another site for a safe area. 	193697075	1477168280018	1477168280196	e	69
377854	4077382	Brcko had been proposed as another site for a safe area.	Brock had been proposed a another site for a safe area. 	193697077	1477168280211	1477168280347	 	32
377854	4077382	Brcko had been proposed as another site for a safe area.	Brock had been proposed a another site for a safe area. 	193697079	1477168280518	1477168280657	o	79
377854	4077382	Brcko had been proposed as another site for a safe area.	Brock had been proposed a another site for a safe area. 	193697080	1477168280876	1477168281005	BKSP	8
377854	4077382	Brcko had been proposed as another site for a safe area.	Brock had been proposed a another site for a safe area. 	193697081	1477168280991	1477168281159	f	70
377854	4077382	Brcko had been proposed as another site for a safe area.	Brock had been proposed a another site for a safe area. 	193697131	1477168281153	1477168281264	o	79
377854	4077382	Brcko had been proposed as another site for a safe area.	Brock had been proposed a another site for a safe area. 	193697134	1477168281296	1477168281433	r	82
377854	4077382	Brcko had been proposed as another site for a safe area.	Brock had been proposed a another site for a safe area. 	193697138	1477168281423	1477168281567	 	32
377854	4077382	Brcko had been proposed as another site for a safe area.	Brock had been proposed a another site for a safe area. 	193697141	1477168281776	1477168281963	a	65
377854	4077382	Brcko had been proposed as another site for a safe area.	Brock had been proposed a another site for a safe area. 	193697142	1477168281920	1477168282046	 	32
377854	4077382	Brcko had been proposed as another site for a safe area.	Brock had been proposed a another site for a safe area. 	193697144	1477168282422	1477168282523	s	83
377854	4077382	Brcko had been proposed as another site for a safe area.	Brock had been proposed a another site for a safe area. 	193697165	1477168282611	1477168282801	a	65
377854	4077382	Brcko had been proposed as another site for a safe area.	Brock had been proposed a another site for a safe area. 	193697167	1477168282883	1477168283018	d	68
377854	4077382	Brcko had been proposed as another site for a safe area.	Brock had been proposed a another site for a safe area. 	193697169	1477168283660	1477168283836	BKSP	8
377854	4077382	Brcko had been proposed as another site for a safe area.	Brock had been proposed a another site for a safe area. 	193697172	1477168283852	1477168283995	f	70
377854	4077382	Brcko had been proposed as another site for a safe area.	Brock had been proposed a another site for a safe area. 	193697175	1477168283955	1477168284113	e	69
377854	4077382	Brcko had been proposed as another site for a safe area.	Brock had been proposed a another site for a safe area. 	193697210	1477168284098	1477168284276	 	32
377854	4077382	Brcko had been proposed as another site for a safe area.	Brock had been proposed a another site for a safe area. 	193697211	1477168284268	1477168284456	a	65
377854	4077382	Brcko had been proposed as another site for a safe area.	Brock had been proposed a another site for a safe area. 	193697212	1477168284566	1477168284739	r	82
377854	4077382	Brcko had been proposed as another site for a safe area.	Brock had been proposed a another site for a safe area. 	193697214	1477168284737	1477168284955	e	69
377854	4077382	Brcko had been proposed as another site for a safe area.	Brock had been proposed a another site for a safe area. 	193697216	1477168284966	1477168285166	a	65
377854	4077382	Brcko had been proposed as another site for a safe area.	Brock had been proposed a another site for a safe area. 	193697219	1477168285244	1477168285388	.	190
377854	4077382	Brcko had been proposed as another site for a safe area.	Brock had been proposed a another site for a safe area. 	193697231	1477168285459	1477168285578	 	32
377854	4077397	Please feel free to add to it if I missed something.	Please feel free to add to it if I missed something.	193697491	1477168290129	1477168290615	SHIFT	16
377854	4077397	Please feel free to add to it if I missed something.	Please feel free to add to it if I missed something.	193697490	1477168290482	1477168290583	P	80
377854	4077397	Please feel free to add to it if I missed something.	Please feel free to add to it if I missed something.	193697492	1477168290802	1477168290908	e	69
377854	4077397	Please feel free to add to it if I missed something.	Please feel free to add to it if I missed something.	193697493	1477168291036	1477168291173	a	65
377854	4077397	Please feel free to add to it if I missed something.	Please feel free to add to it if I missed something.	193697496	1477168291361	1477168291434	BKSP	8
377854	4077397	Please feel free to add to it if I missed something.	Please feel free to add to it if I missed something.	193697499	1477168291757	1477168291826	l	76
377854	4077397	Please feel free to add to it if I missed something.	Please feel free to add to it if I missed something.	193697501	1477168292542	1477168292650	BKSP	8
377854	4077397	Please feel free to add to it if I missed something.	Please feel free to add to it if I missed something.	193697503	1477168292743	1477168292887	BKSP	8
377854	4077397	Please feel free to add to it if I missed something.	Please feel free to add to it if I missed something.	193697505	1477168293351	1477168293483	l	76
377854	4077397	Please feel free to add to it if I missed something.	Please feel free to add to it if I missed something.	193697517	1477168293454	1477168293563	e	69
377854	4077397	Please feel free to add to it if I missed something.	Please feel free to add to it if I missed something.	193697518	1477168293665	1477168293868	a	65
377854	4077397	Please feel free to add to it if I missed something.	Please feel free to add to it if I missed something.	193697519	1477168293857	1477168294010	s	83
377854	4077397	Please feel free to add to it if I missed something.	Please feel free to add to it if I missed something.	193697520	1477168294119	1477168294246	e	69
377854	4077397	Please feel free to add to it if I missed something.	Please feel free to add to it if I missed something.	193697522	1477168294277	1477168294426	 	32
377854	4077397	Please feel free to add to it if I missed something.	Please feel free to add to it if I missed something.	193697527	1477168294758	1477168294887	f	70
377854	4077397	Please feel free to add to it if I missed something.	Please feel free to add to it if I missed something.	193697564	1477168294892	1477168295015	e	69
377854	4077397	Please feel free to add to it if I missed something.	Please feel free to add to it if I missed something.	193697569	1477168295102	1477168295232	e	69
377854	4077397	Please feel free to add to it if I missed something.	Please feel free to add to it if I missed something.	193697572	1477168295294	1477168295456	l	76
377854	4077397	Please feel free to add to it if I missed something.	Please feel free to add to it if I missed something.	193697576	1477168295427	1477168295623	 	32
377854	4077397	Please feel free to add to it if I missed something.	Please feel free to add to it if I missed something.	193697565	1477168295571	1477168295698	f	70
377854	4077397	Please feel free to add to it if I missed something.	Please feel free to add to it if I missed something.	193697568	1477168295792	1477168295923	r	82
377854	4077397	Please feel free to add to it if I missed something.	Please feel free to add to it if I missed something.	193697573	1477168296017	1477168296101	e	69
377854	4077397	Please feel free to add to it if I missed something.	Please feel free to add to it if I missed something.	193697577	1477168296157	1477168296301	e	69
377854	4077397	Please feel free to add to it if I missed something.	Please feel free to add to it if I missed something.	193697579	1477168296301	1477168296493	 	32
377854	4077397	Please feel free to add to it if I missed something.	Please feel free to add to it if I missed something.	193697616	1477168296438	1477168296635	t	84
377854	4077397	Please feel free to add to it if I missed something.	Please feel free to add to it if I missed something.	193697620	1477168296612	1477168296746	o	79
377854	4077397	Please feel free to add to it if I missed something.	Please feel free to add to it if I missed something.	193697624	1477168296761	1477168296922	 	32
377854	4077397	Please feel free to add to it if I missed something.	Please feel free to add to it if I missed something.	193697628	1477168297013	1477168297109	s	83
377854	4077397	Please feel free to add to it if I missed something.	Please feel free to add to it if I missed something.	193697631	1477168297358	1477168297487	BKSP	8
377854	4077397	Please feel free to add to it if I missed something.	Please feel free to add to it if I missed something.	193697633	1477168297474	1477168297655	a	65
377854	4077397	Please feel free to add to it if I missed something.	Please feel free to add to it if I missed something.	193697636	1477168297903	1477168297959	d	68
377854	4077397	Please feel free to add to it if I missed something.	Please feel free to add to it if I missed something.	193697718	1477168298296	1477168298376	d	68
377854	4077397	Please feel free to add to it if I missed something.	Please feel free to add to it if I missed something.	193697720	1477168298671	1477168298783	 	32
377854	4077397	Please feel free to add to it if I missed something.	Please feel free to add to it if I missed something.	193697721	1477168299227	1477168299332	t	84
377854	4077397	Please feel free to add to it if I missed something.	Please feel free to add to it if I missed something.	193697722	1477168299426	1477168299509	p	80
377854	4077397	Please feel free to add to it if I missed something.	Please feel free to add to it if I missed something.	193697723	1477168300064	1477168300177	BKSP	8
377854	4077397	Please feel free to add to it if I missed something.	Please feel free to add to it if I missed something.	193697725	1477168300267	1477168300398	o	79
377854	4077397	Please feel free to add to it if I missed something.	Please feel free to add to it if I missed something.	193697741	1477168300426	1477168300569	 	32
377854	4077397	Please feel free to add to it if I missed something.	Please feel free to add to it if I missed something.	193697742	1477168300615	1477168300735	i	73
377854	4077397	Please feel free to add to it if I missed something.	Please feel free to add to it if I missed something.	193697743	1477168300767	1477168300888	t	84
377854	4077397	Please feel free to add to it if I missed something.	Please feel free to add to it if I missed something.	193697744	1477168300904	1477168301040	 	32
377854	4077397	Please feel free to add to it if I missed something.	Please feel free to add to it if I missed something.	193697745	1477168301133	1477168301208	i	73
377854	4077397	Please feel free to add to it if I missed something.	Please feel free to add to it if I missed something.	193697810	1477168301814	1477168301960	f	70
377854	4077397	Please feel free to add to it if I missed something.	Please feel free to add to it if I missed something.	193697811	1477168301960	1477168302099	 	32
377854	4077397	Please feel free to add to it if I missed something.	Please feel free to add to it if I missed something.	193697812	1477168302182	1477168302432	SHIFT	16
377854	4077397	Please feel free to add to it if I missed something.	Please feel free to add to it if I missed something.	193697813	1477168302424	1477168302532	I	73
377854	4077397	Please feel free to add to it if I missed something.	Please feel free to add to it if I missed something.	193697814	1477168302845	1477168302934	 	32
377854	4077397	Please feel free to add to it if I missed something.	Please feel free to add to it if I missed something.	193697815	1477168303105	1477168303236	m	77
377854	4077397	Please feel free to add to it if I missed something.	Please feel free to add to it if I missed something.	193697855	1477168303312	1477168303365	i	73
377854	4077397	Please feel free to add to it if I missed something.	Please feel free to add to it if I missed something.	193697858	1477168303596	1477168303691	s	83
377854	4077397	Please feel free to add to it if I missed something.	Please feel free to add to it if I missed something.	193697862	1477168303770	1477168303890	s	83
377854	4077397	Please feel free to add to it if I missed something.	Please feel free to add to it if I missed something.	193697866	1477168303953	1477168304042	e	69
377854	4077397	Please feel free to add to it if I missed something.	Please feel free to add to it if I missed something.	193697869	1477168304151	1477168304287	d	68
377854	4077397	Please feel free to add to it if I missed something.	Please feel free to add to it if I missed something.	193697923	1477168304330	1477168304488	 	32
377854	4077397	Please feel free to add to it if I missed something.	Please feel free to add to it if I missed something.	193697924	1477168304488	1477168304692	a	65
377854	4077397	Please feel free to add to it if I missed something.	Please feel free to add to it if I missed something.	193697925	1477168304975	1477168305082	BKSP	8
377854	4077397	Please feel free to add to it if I missed something.	Please feel free to add to it if I missed something.	193697926	1477168305114	1477168305257	s	83
377854	4077397	Please feel free to add to it if I missed something.	Please feel free to add to it if I missed something.	193697927	1477168305284	1477168305406	o	79
377854	4077397	Please feel free to add to it if I missed something.	Please feel free to add to it if I missed something.	193697928	1477168306303	1477168306408	m	77
377854	4077397	Please feel free to add to it if I missed something.	Please feel free to add to it if I missed something.	193697937	1477168306438	1477168306556	t	84
377854	4077397	Please feel free to add to it if I missed something.	Please feel free to add to it if I missed something.	193697939	1477168306603	1477168306715	h	72
377854	4077397	Please feel free to add to it if I missed something.	Please feel free to add to it if I missed something.	193697942	1477168306788	1477168306922	i	73
377854	4077397	Please feel free to add to it if I missed something.	Please feel free to add to it if I missed something.	193697945	1477168306953	1477168307136	n	78
377854	4077397	Please feel free to add to it if I missed something.	Please feel free to add to it if I missed something.	193698023	1477168307103	1477168307236	g	71
377854	4077397	Please feel free to add to it if I missed something.	Please feel free to add to it if I missed something.	193698026	1477168307279	1477168307438	.	190
377854	4077397	Please feel free to add to it if I missed something.	Please feel free to add to it if I missed something.	193698030	1477168307751	1477168307872	BKSP	8
377854	4077397	Please feel free to add to it if I missed something.	Please feel free to add to it if I missed something.	193698033	1477168307934	1477168308025	BKSP	8
377854	4077397	Please feel free to add to it if I missed something.	Please feel free to add to it if I missed something.	193698036	1477168308087	1477168308192	BKSP	8
377854	4077397	Please feel free to add to it if I missed something.	Please feel free to add to it if I missed something.	193698039	1477168308255	1477168308353	BKSP	8
377854	4077397	Please feel free to add to it if I missed something.	Please feel free to add to it if I missed something.	193698041	1477168308415	1477168308508	BKSP	8
377854	4077397	Please feel free to add to it if I missed something.	Please feel free to add to it if I missed something.	193698043	1477168308555	1477168308701	BKSP	8
377854	4077397	Please feel free to add to it if I missed something.	Please feel free to add to it if I missed something.	193698044	1477168308748	1477168308858	e	69
377854	4077397	Please feel free to add to it if I missed something.	Please feel free to add to it if I missed something.	193698046	1477168309318	1477168309436	t	84
377854	4077397	Please feel free to add to it if I missed something.	Please feel free to add to it if I missed something.	193698048	1477168309431	1477168309537	h	72
377854	4077397	Please feel free to add to it if I missed something.	Please feel free to add to it if I missed something.	193698051	1477168309584	1477168309706	i	73
377854	4077397	Please feel free to add to it if I missed something.	Please feel free to add to it if I missed something.	193698055	1477168309738	1477168309861	n	78
377854	4077397	Please feel free to add to it if I missed something.	Please feel free to add to it if I missed something.	193698058	1477168309869	1477168309988	g	71
377854	4077397	Please feel free to add to it if I missed something.	Please feel free to add to it if I missed something.	193698061	1477168310808	1477168310884	.	190
377854	4077417	Even if it were approved, Clinton could veto the measure.	Even if it were approved, Clinton could veto the measure.	193698202	1477168314605	1477168314919	SHIFT	16
377854	4077417	Even if it were approved, Clinton could veto the measure.	Even if it were approved, Clinton could veto the measure.	193698206	1477168314883	1477168315022	E	69
377854	4077417	Even if it were approved, Clinton could veto the measure.	Even if it were approved, Clinton could veto the measure.	193698213	1477168315256	1477168315342	v	86
377854	4077417	Even if it were approved, Clinton could veto the measure.	Even if it were approved, Clinton could veto the measure.	193698219	1477168315386	1477168315467	e	69
377854	4077417	Even if it were approved, Clinton could veto the measure.	Even if it were approved, Clinton could veto the measure.	193698222	1477168315561	1477168315701	n	78
377854	4077417	Even if it were approved, Clinton could veto the measure.	Even if it were approved, Clinton could veto the measure.	193698229	1477168315764	1477168315910	 	32
377854	4077417	Even if it were approved, Clinton could veto the measure.	Even if it were approved, Clinton could veto the measure.	193698274	1477168315906	1477168316038	i	73
377854	4077417	Even if it were approved, Clinton could veto the measure.	Even if it were approved, Clinton could veto the measure.	193698277	1477168316210	1477168316369	f	70
377854	4077417	Even if it were approved, Clinton could veto the measure.	Even if it were approved, Clinton could veto the measure.	193698280	1477168316373	1477168316489	 	32
377854	4077417	Even if it were approved, Clinton could veto the measure.	Even if it were approved, Clinton could veto the measure.	193698283	1477168316520	1477168316669	i	73
377854	4077417	Even if it were approved, Clinton could veto the measure.	Even if it were approved, Clinton could veto the measure.	193698285	1477168316669	1477168316798	t	84
377854	4077417	Even if it were approved, Clinton could veto the measure.	Even if it were approved, Clinton could veto the measure.	193698289	1477168316829	1477168316936	 	32
377854	4077417	Even if it were approved, Clinton could veto the measure.	Even if it were approved, Clinton could veto the measure.	193698320	1477168317392	1477168317521	w	87
377854	4077417	Even if it were approved, Clinton could veto the measure.	Even if it were approved, Clinton could veto the measure.	193698321	1477168317661	1477168317825	e	69
377854	4077417	Even if it were approved, Clinton could veto the measure.	Even if it were approved, Clinton could veto the measure.	193698323	1477168317969	1477168318102	r	82
377854	4077417	Even if it were approved, Clinton could veto the measure.	Even if it were approved, Clinton could veto the measure.	193698326	1477168318180	1477168318327	e	69
377854	4077417	Even if it were approved, Clinton could veto the measure.	Even if it were approved, Clinton could veto the measure.	193698389	1477168318298	1477168318434	 	32
377854	4077417	Even if it were approved, Clinton could veto the measure.	Even if it were approved, Clinton could veto the measure.	193698393	1477168318669	1477168318812	a	65
377854	4077417	Even if it were approved, Clinton could veto the measure.	Even if it were approved, Clinton could veto the measure.	193698397	1477168318902	1477168318991	p	80
377854	4077417	Even if it were approved, Clinton could veto the measure.	Even if it were approved, Clinton could veto the measure.	193698400	1477168319476	1477168319566	p	80
377854	4077417	Even if it were approved, Clinton could veto the measure.	Even if it were approved, Clinton could veto the measure.	193698402	1477168319722	1477168319870	r	82
377854	4077417	Even if it were approved, Clinton could veto the measure.	Even if it were approved, Clinton could veto the measure.	193698404	1477168319870	1477168319987	o	79
377854	4077417	Even if it were approved, Clinton could veto the measure.	Even if it were approved, Clinton could veto the measure.	193698449	1477168320561	1477168320748	v	86
377854	4077417	Even if it were approved, Clinton could veto the measure.	Even if it were approved, Clinton could veto the measure.	193698451	1477168320720	1477168320839	e	69
377854	4077417	Even if it were approved, Clinton could veto the measure.	Even if it were approved, Clinton could veto the measure.	193698452	1477168320954	1477168321080	d	68
377854	4077417	Even if it were approved, Clinton could veto the measure.	Even if it were approved, Clinton could veto the measure.	193698453	1477168321127	1477168321271	,	188
377854	4077417	Even if it were approved, Clinton could veto the measure.	Even if it were approved, Clinton could veto the measure.	193698455	1477168321349	1477168321485	 	32
377854	4077417	Even if it were approved, Clinton could veto the measure.	Even if it were approved, Clinton could veto the measure.	193698537	1477168321686	1477168322296	SHIFT	16
377854	4077417	Even if it were approved, Clinton could veto the measure.	Even if it were approved, Clinton could veto the measure.	193698542	1477168322530	1477168322919	SHIFT	16
377854	4077417	Even if it were approved, Clinton could veto the measure.	Even if it were approved, Clinton could veto the measure.	193698539	1477168322733	1477168322888	C	67
377854	4077417	Even if it were approved, Clinton could veto the measure.	Even if it were approved, Clinton could veto the measure.	193698544	1477168322935	1477168323054	l	76
377854	4077417	Even if it were approved, Clinton could veto the measure.	Even if it were approved, Clinton could veto the measure.	193698547	1477168323878	1477168323997	i	73
377854	4077417	Even if it were approved, Clinton could veto the measure.	Even if it were approved, Clinton could veto the measure.	193698550	1477168324099	1477168324203	n	78
377854	4077417	Even if it were approved, Clinton could veto the measure.	Even if it were approved, Clinton could veto the measure.	193698552	1477168324281	1477168324372	t	84
377854	4077417	Even if it were approved, Clinton could veto the measure.	Even if it were approved, Clinton could veto the measure.	193698578	1477168324381	1477168324497	o	79
377854	4077417	Even if it were approved, Clinton could veto the measure.	Even if it were approved, Clinton could veto the measure.	193698580	1477168324580	1477168324686	n	78
377854	4077417	Even if it were approved, Clinton could veto the measure.	Even if it were approved, Clinton could veto the measure.	193698583	1477168324796	1477168324932	 	32
377854	4077417	Even if it were approved, Clinton could veto the measure.	Even if it were approved, Clinton could veto the measure.	193698586	1477168325286	1477168325449	c	67
377854	4077417	Even if it were approved, Clinton could veto the measure.	Even if it were approved, Clinton could veto the measure.	193698627	1477168325414	1477168325537	o	79
377854	4077417	Even if it were approved, Clinton could veto the measure.	Even if it were approved, Clinton could veto the measure.	193698629	1477168325568	1477168325694	u	85
377854	4077417	Even if it were approved, Clinton could veto the measure.	Even if it were approved, Clinton could veto the measure.	193698634	1477168325788	1477168325956	l	76
377854	4077417	Even if it were approved, Clinton could veto the measure.	Even if it were approved, Clinton could veto the measure.	193698637	1477168325938	1477168326085	d	68
377854	4077417	Even if it were approved, Clinton could veto the measure.	Even if it were approved, Clinton could veto the measure.	193698639	1477168326179	1477168326310	 	32
377854	4077417	Even if it were approved, Clinton could veto the measure.	Even if it were approved, Clinton could veto the measure.	193698641	1477168327031	1477168327202	v	86
377854	4077417	Even if it were approved, Clinton could veto the measure.	Even if it were approved, Clinton could veto the measure.	193698667	1477168327231	1477168327454	e	69
377854	4077417	Even if it were approved, Clinton could veto the measure.	Even if it were approved, Clinton could veto the measure.	193698669	1477168327583	1477168327658	r	84
377854	4077417	Even if it were approved, Clinton could veto the measure.	Even if it were approved, Clinton could veto the measure.	193698671	1477168328325	1477168328431	BKSP	8
377854	4077417	Even if it were approved, Clinton could veto the measure.	Even if it were approved, Clinton could veto the measure.	193698674	1477168328583	1477168328745	o	79
377854	4077417	Even if it were approved, Clinton could veto the measure.	Even if it were approved, Clinton could veto the measure.	193698677	1477168328792	1477168328917	 	32
377854	4077417	Even if it were approved, Clinton could veto the measure.	Even if it were approved, Clinton could veto the measure.	193698716	1477168329421	1477168329543	t	84
377854	4077417	Even if it were approved, Clinton could veto the measure.	Even if it were approved, Clinton could veto the measure.	193698719	1477168329582	1477168329706	h	72
377854	4077417	Even if it were approved, Clinton could veto the measure.	Even if it were approved, Clinton could veto the measure.	193698721	1477168329721	1477168329855	e	69
377854	4077417	Even if it were approved, Clinton could veto the measure.	Even if it were approved, Clinton could veto the measure.	193698723	1477168329868	1477168330004	 	32
377854	4077417	Even if it were approved, Clinton could veto the measure.	Even if it were approved, Clinton could veto the measure.	193698726	1477168330226	1477168330383	m	77
377854	4077417	Even if it were approved, Clinton could veto the measure.	Even if it were approved, Clinton could veto the measure.	193698800	1477168330368	1477168330542	e	69
377854	4077417	Even if it were approved, Clinton could veto the measure.	Even if it were approved, Clinton could veto the measure.	193698803	1477168330570	1477168330728	a	65
377854	4077417	Even if it were approved, Clinton could veto the measure.	Even if it were approved, Clinton could veto the measure.	193698806	1477168330790	1477168330941	s	83
377854	4077417	Even if it were approved, Clinton could veto the measure.	Even if it were approved, Clinton could veto the measure.	193698809	1477168331059	1477168331170	u	85
377854	4077417	Even if it were approved, Clinton could veto the measure.	Even if it were approved, Clinton could veto the measure.	193698811	1477168331280	1477168331405	r	82
377854	4077417	Even if it were approved, Clinton could veto the measure.	Even if it were approved, Clinton could veto the measure.	193698814	1477168331436	1477168331602	e	69
377854	4077417	Even if it were approved, Clinton could veto the measure.	Even if it were approved, Clinton could veto the measure.	193698799	1477168332275	1477168332374	.	190
377854	4077431	Thanks, having a good time.	Thanks, having a good time.	193698938	1477168334899	1477168335637	SHIFT	16
377854	4077431	Thanks, having a good time.	Thanks, having a good time.	193698940	1477168335505	1477168335637	T	84
377854	4077431	Thanks, having a good time.	Thanks, having a good time.	193698945	1477168335652	1477168335764	h	72
377854	4077431	Thanks, having a good time.	Thanks, having a good time.	193698948	1477168335795	1477168335944	a	65
377854	4077431	Thanks, having a good time.	Thanks, having a good time.	193698952	1477168336038	1477168336151	k	75
377854	4077431	Thanks, having a good time.	Thanks, having a good time.	193698954	1477168336714	1477168336805	BKSP	8
377854	4077431	Thanks, having a good time.	Thanks, having a good time.	193698956	1477168336961	1477168337098	n	78
377854	4077431	Thanks, having a good time.	Thanks, having a good time.	193699035	1477168337154	1477168337279	k	75
377854	4077431	Thanks, having a good time.	Thanks, having a good time.	193699038	1477168338455	1477168338588	s	83
377854	4077431	Thanks, having a good time.	Thanks, having a good time.	193699043	1477168338668	1477168338794	,	188
377854	4077431	Thanks, having a good time.	Thanks, having a good time.	193699049	1477168338950	1477168339070	 	32
377854	4077431	Thanks, having a good time.	Thanks, having a good time.	193699055	1477168339371	1477168339656	SHIFT	16
377854	4077431	Thanks, having a good time.	Thanks, having a good time.	193699061	1477168339903	1477168340018	h	72
377854	4077431	Thanks, having a good time.	Thanks, having a good time.	193699137	1477168340012	1477168340229	a	65
377854	4077431	Thanks, having a good time.	Thanks, having a good time.	193699139	1477168340203	1477168340351	v	86
377854	4077431	Thanks, having a good time.	Thanks, having a good time.	193699140	1477168340397	1477168340495	i	73
377854	4077431	Thanks, having a good time.	Thanks, having a good time.	193699142	1477168340620	1477168340754	n	78
377854	4077431	Thanks, having a good time.	Thanks, having a good time.	193699144	1477168341214	1477168341352	g	71
377854	4077431	Thanks, having a good time.	Thanks, having a good time.	193699148	1477168341383	1477168341518	 	32
377854	4077431	Thanks, having a good time.	Thanks, having a good time.	193699202	1477168341560	1477168341763	a	65
377854	4077431	Thanks, having a good time.	Thanks, having a good time.	193699205	1477168341693	1477168341825	 	32
377854	4077431	Thanks, having a good time.	Thanks, having a good time.	193699208	1477168342218	1477168342337	g	71
377854	4077431	Thanks, having a good time.	Thanks, having a good time.	193699212	1477168342352	1477168342651	o	79
377854	4077431	Thanks, having a good time.	Thanks, having a good time.	193699215	1477168343154	1477168343251	o	79
377854	4077431	Thanks, having a good time.	Thanks, having a good time.	193699246	1477168343313	1477168343456	d	68
377854	4077431	Thanks, having a good time.	Thanks, having a good time.	193699247	1477168343472	1477168343608	 	32
377854	4077431	Thanks, having a good time.	Thanks, having a good time.	193699248	1477168343845	1477168343953	t	84
377854	4077431	Thanks, having a good time.	Thanks, having a good time.	193699249	1477168343968	1477168344088	i	73
377854	4077431	Thanks, having a good time.	Thanks, having a good time.	193699250	1477168344135	1477168344277	m	77
377854	4077431	Thanks, having a good time.	Thanks, having a good time.	193699258	1477168344269	1477168344380	e	69
377854	4077431	Thanks, having a good time.	Thanks, having a good time.	193699259	1477168344411	1477168344552	.	190
377854	4077437	My comments are in fuschia.	y comments are in fuschia.	193699410	1477168347363	1477168348005	CTRL	17
377854	4077437	My comments are in fuschia.	y comments are in fuschia.	193699411	1477168347896	1477168348037		77
377854	4077437	My comments are in fuschia.	y comments are in fuschia.	193699412	1477168348266	1477168348369	y	89
377854	4077437	My comments are in fuschia.	y comments are in fuschia.	193699413	1477168348447	1477168348580	 	32
377854	4077437	My comments are in fuschia.	y comments are in fuschia.	193699414	1477168348611	1477168348793	c	67
377854	4077437	My comments are in fuschia.	y comments are in fuschia.	193699476	1477168348785	1477168348926	o	79
377854	4077437	My comments are in fuschia.	y comments are in fuschia.	193699478	1477168348988	1477168349105	m	77
377854	4077437	My comments are in fuschia.	y comments are in fuschia.	193699481	1477168349137	1477168349256	m	77
377854	4077437	My comments are in fuschia.	y comments are in fuschia.	193699485	1477168349397	1477168349589	e	69
377854	4077437	My comments are in fuschia.	y comments are in fuschia.	193699487	1477168349530	1477168349613	n	78
377854	4077437	My comments are in fuschia.	y comments are in fuschia.	193699490	1477168349722	1477168349866	t	84
377854	4077437	My comments are in fuschia.	y comments are in fuschia.	193699475	1477168349913	1477168350046	s	83
377854	4077437	My comments are in fuschia.	y comments are in fuschia.	193699480	1477168350077	1477168350203	 	32
377854	4077437	My comments are in fuschia.	y comments are in fuschia.	193699483	1477168350234	1477168350455	a	65
377854	4077437	My comments are in fuschia.	y comments are in fuschia.	193699488	1477168350502	1477168350614	r	82
377854	4077437	My comments are in fuschia.	y comments are in fuschia.	193699492	1477168350723	1477168350900	e	69
377854	4077437	My comments are in fuschia.	y comments are in fuschia.	193699517	1477168350904	1477168351013	 	32
377854	4077437	My comments are in fuschia.	y comments are in fuschia.	193699519	1477168351260	1477168351369	i	73
377854	4077437	My comments are in fuschia.	y comments are in fuschia.	193699521	1477168351447	1477168351560	n	78
377854	4077437	My comments are in fuschia.	y comments are in fuschia.	193699523	1477168351638	1477168351740	 	32
377854	4077437	My comments are in fuschia.	y comments are in fuschia.	193699525	1477168352616	1477168352753	f	70
377854	4077437	My comments are in fuschia.	y comments are in fuschia.	193699564	1477168352945	1477168353054	u	85
377854	4077437	My comments are in fuschia.	y comments are in fuschia.	193699565	1477168353461	1477168353619	s	83
377854	4077437	My comments are in fuschia.	y comments are in fuschia.	193699566	1477168354046	1477168354194	c	67
377854	4077437	My comments are in fuschia.	y comments are in fuschia.	193699567	1477168354311	1477168354406	h	72
377854	4077437	My comments are in fuschia.	y comments are in fuschia.	193699568	1477168354828	1477168354928	i	73
377854	4077437	My comments are in fuschia.	y comments are in fuschia.	193699587	1477168355000	1477168355108	a	65
377854	4077437	My comments are in fuschia.	y comments are in fuschia.	193699589	1477168355706	1477168355823	.	190
377854	4077448	But I believe answer will be yes.	But i believe answer will be yes.	193699697	1477168358894	1477168359181	SHIFT	16
377854	4077448	But I believe answer will be yes.	But i believe answer will be yes.	193699699	1477168359104	1477168359197	B	66
377854	4077448	But I believe answer will be yes.	But i believe answer will be yes.	193699702	1477168359275	1477168359401	u	85
377854	4077448	But I believe answer will be yes.	But i believe answer will be yes.	193699704	1477168359448	1477168359561	t	84
377854	4077448	But I believe answer will be yes.	But i believe answer will be yes.	193699705	1477168359592	1477168359733	 	32
377854	4077448	But I believe answer will be yes.	But i believe answer will be yes.	193699707	1477168359780	1477168359936	i	73
377854	4077448	But I believe answer will be yes.	But i believe answer will be yes.	193699823	1477168359916	1477168360065	 	32
377854	4077448	But I believe answer will be yes.	But i believe answer will be yes.	193699826	1477168360400	1477168360544	b	66
377854	4077448	But I believe answer will be yes.	But i believe answer will be yes.	193699829	1477168360606	1477168360744	e	69
377854	4077448	But I believe answer will be yes.	But i believe answer will be yes.	193699834	1477168360882	1477168360934	;	186
377854	4077448	But I believe answer will be yes.	But i believe answer will be yes.	193699838	1477168361613	1477168361736	BKSP	8
377854	4077448	But I believe answer will be yes.	But i believe answer will be yes.	193699843	1477168362276	1477168362382	l	76
377854	4077448	But I believe answer will be yes.	But i believe answer will be yes.	193699846	1477168363602	1477168363704	i	73
377854	4077448	But I believe answer will be yes.	But i believe answer will be yes.	193699897	1477168363763	1477168363920	e	69
377854	4077448	But I believe answer will be yes.	But i believe answer will be yes.	193699898	1477168364623	1477168364812	v	86
377854	4077448	But I believe answer will be yes.	But i believe answer will be yes.	193699899	1477168364767	1477168364989	e	69
377854	4077448	But I believe answer will be yes.	But i believe answer will be yes.	193699900	1477168365036	1477168365201	 	32
377854	4077448	But I believe answer will be yes.	But i believe answer will be yes.	193699902	1477168365436	1477168365653	a	65
377854	4077448	But I believe answer will be yes.	But i believe answer will be yes.	193700003	1477168365713	1477168365829	n	78
377854	4077448	But I believe answer will be yes.	But i believe answer will be yes.	193700005	1477168366173	1477168366308	w	87
377854	4077448	But I believe answer will be yes.	But i believe answer will be yes.	193700009	1477168366529	1477168366669	BKSP	8
377854	4077448	But I believe answer will be yes.	But i believe answer will be yes.	193700013	1477168366700	1477168366819	s	83
377854	4077448	But I believe answer will be yes.	But i believe answer will be yes.	193700018	1477168367640	1477168367866	w	87
377854	4077448	But I believe answer will be yes.	But i believe answer will be yes.	193700004	1477168367817	1477168367985	e	69
377854	4077448	But I believe answer will be yes.	But i believe answer will be yes.	193700007	1477168368095	1477168368241	r	82
377854	4077448	But I believe answer will be yes.	But i believe answer will be yes.	193700010	1477168368623	1477168368822	 	32
377854	4077448	But I believe answer will be yes.	But i believe answer will be yes.	193700016	1477168368815	1477168368974	w	87
377854	4077448	But I believe answer will be yes.	But i believe answer will be yes.	193700020	1477168368955	1477168369066	i	73
377854	4077448	But I believe answer will be yes.	But i believe answer will be yes.	193700024	1477168369206	1477168369310	l	76
377854	4077448	But I believe answer will be yes.	But i believe answer will be yes.	193700075	1477168369384	1477168369504	l	76
377854	4077448	But I believe answer will be yes.	But i believe answer will be yes.	193700077	1477168369549	1477168369733	 	32
377854	4077448	But I believe answer will be yes.	But i believe answer will be yes.	193700079	1477168370549	1477168370655	b	66
377854	4077448	But I believe answer will be yes.	But i believe answer will be yes.	193700080	1477168370686	1477168370817	e	69
377854	4077448	But I believe answer will be yes.	But i believe answer will be yes.	193700081	1477168370833	1477168370972	 	32
377854	4077448	But I believe answer will be yes.	But i believe answer will be yes.	193700111	1477168371129	1477168371250	y	89
377854	4077448	But I believe answer will be yes.	But i believe answer will be yes.	193700115	1477168371313	1477168371510	e	69
377854	4077448	But I believe answer will be yes.	But i believe answer will be yes.	193700117	1477168371491	1477168371657	s	83
377854	4077448	But I believe answer will be yes.	But i believe answer will be yes.	193700119	1477168371617	1477168371775	.	190
377854	4077457	Has it been mentioned yet?	Has it been mentioned yet?	193700241	1477168374697	1477168375131	SHIFT	16
377854	4077457	Has it been mentioned yet?	Has it been mentioned yet?	193700239	1477168374993	1477168375084	H	72
377854	4077457	Has it been mentioned yet?	Has it been mentioned yet?	193700243	1477168375225	1477168375399	a	65
377854	4077457	Has it been mentioned yet?	Has it been mentioned yet?	193700245	1477168375462	1477168375617	s	83
377854	4077457	Has it been mentioned yet?	Has it been mentioned yet?	193700246	1477168375600	1477168375737	 	32
377854	4077457	Has it been mentioned yet?	Has it been mentioned yet?	193700249	1477168375799	1477168375936	i	73
377854	4077457	Has it been mentioned yet?	Has it been mentioned yet?	193700319	1477168376212	1477168376294	 	32
377854	4077457	Has it been mentioned yet?	Has it been mentioned yet?	193700321	1477168376647	1477168376790	BKSP	8
377854	4077457	Has it been mentioned yet?	Has it been mentioned yet?	193700324	1477168376853	1477168376975	t	84
377854	4077457	Has it been mentioned yet?	Has it been mentioned yet?	193700327	1477168376990	1477168377120	 	32
377854	4077457	Has it been mentioned yet?	Has it been mentioned yet?	193700330	1477168377217	1477168377353	b	66
377854	4077457	Has it been mentioned yet?	Has it been mentioned yet?	193700332	1477168377400	1477168377494	e	69
377854	4077457	Has it been mentioned yet?	Has it been mentioned yet?	193700342	1477168377556	1477168377667	e	69
377854	4077457	Has it been mentioned yet?	Has it been mentioned yet?	193700345	1477168377698	1477168377859	n	78
377854	4077457	Has it been mentioned yet?	Has it been mentioned yet?	193700348	1477168377859	1477168378003	 	32
377854	4077457	Has it been mentioned yet?	Has it been mentioned yet?	193700352	1477168378229	1477168378361	m	77
377854	4077457	Has it been mentioned yet?	Has it been mentioned yet?	193700356	1477168378361	1477168378492	e	69
377854	4077457	Has it been mentioned yet?	Has it been mentioned yet?	193700382	1477168378580	1477168378652	n	78
377854	4077457	Has it been mentioned yet?	Has it been mentioned yet?	193700383	1477168379106	1477168379240	t	84
377854	4077457	Has it been mentioned yet?	Has it been mentioned yet?	193700384	1477168379349	1477168379493	i	73
377854	4077457	Has it been mentioned yet?	Has it been mentioned yet?	193700385	1477168379618	1477168379773	o	79
377854	4077457	Has it been mentioned yet?	Has it been mentioned yet?	193700386	1477168379819	1477168379957	n	78
377854	4077457	Has it been mentioned yet?	Has it been mentioned yet?	193700400	1477168379967	1477168380093	e	69
377854	4077457	Has it been mentioned yet?	Has it been mentioned yet?	193700402	1477168380197	1477168380350	d	68
377854	4077457	Has it been mentioned yet?	Has it been mentioned yet?	193700404	1477168380459	1477168380562	 	32
377854	4077457	Has it been mentioned yet?	Has it been mentioned yet?	193700406	1477168380979	1477168381065	y	89
377854	4077457	Has it been mentioned yet?	Has it been mentioned yet?	193700408	1477168381080	1477168381233	e	69
377854	4077457	Has it been mentioned yet?	Has it been mentioned yet?	193700458	1477168381296	1477168381433	t	84
377854	4077457	Has it been mentioned yet?	Has it been mentioned yet?	193700461	1477168381747	1477168381903	.	190
377854	4077457	Has it been mentioned yet?	Has it been mentioned yet?	193700464	1477168382199	1477168382312	BKSP	8
377854	4077457	Has it been mentioned yet?	Has it been mentioned yet?	193700467	1477168382546	1477168382844	SHIFT	16
377854	4077457	Has it been mentioned yet?	Has it been mentioned yet?	193700469	1477168382719	1477168382891	?	191
377854	4077464	I'll ask, he just came by.	I'll ask, he just came by.	193700617	1477168385297	1477168386307	SHIFT	16
377854	4077464	I'll ask, he just came by.	I'll ask, he just came by.	193700615	1477168386206	1477168386292	I	73
377854	4077464	I'll ask, he just came by.	I'll ask, he just came by.	193700619	1477168387249	1477168387321	'	222
377854	4077464	I'll ask, he just came by.	I'll ask, he just came by.	193700621	1477168387665	1477168387769	l	76
377854	4077464	I'll ask, he just came by.	I'll ask, he just came by.	193700623	1477168387816	1477168387959	l	76
377854	4077464	I'll ask, he just came by.	I'll ask, he just came by.	193700624	1477168388006	1477168388156	 	32
377854	4077464	I'll ask, he just came by.	I'll ask, he just came by.	193700645	1477168388472	1477168388672	a	65
377854	4077464	I'll ask, he just came by.	I'll ask, he just came by.	193700646	1477168388672	1477168388864	s	83
377854	4077464	I'll ask, he just came by.	I'll ask, he just came by.	193700648	1477168388911	1477168389020	k	75
377854	4077464	I'll ask, he just came by.	I'll ask, he just came by.	193700650	1477168389192	1477168389300	,	188
377854	4077464	I'll ask, he just came by.	I'll ask, he just came by.	193700652	1477168389362	1477168389496	 	32
377854	4077464	I'll ask, he just came by.	I'll ask, he just came by.	193700688	1477168390073	1477168390185	h	72
377854	4077464	I'll ask, he just came by.	I'll ask, he just came by.	193700690	1477168390238	1477168390372	e	69
377854	4077464	I'll ask, he just came by.	I'll ask, he just came by.	193700692	1477168390360	1477168390514	 	32
377854	4077464	I'll ask, he just came by.	I'll ask, he just came by.	193700694	1477168390786	1477168390863	j	74
377854	4077464	I'll ask, he just came by.	I'll ask, he just came by.	193700697	1477168391013	1477168391164	s	83
377854	4077464	I'll ask, he just came by.	I'll ask, he just came by.	193700731	1477168391662	1477168391769	BKSP	8
377854	4077464	I'll ask, he just came by.	I'll ask, he just came by.	193700732	1477168391896	1477168392001	u	85
377854	4077464	I'll ask, he just came by.	I'll ask, he just came by.	193700736	1477168392032	1477168392206	s	83
377854	4077464	I'll ask, he just came by.	I'll ask, he just came by.	193700740	1477168392241	1477168392386	t	84
377854	4077464	I'll ask, he just came by.	I'll ask, he just came by.	193700743	1477168392366	1477168392478	 	32
377854	4077464	I'll ask, he just came by.	I'll ask, he just came by.	193700746	1477168392713	1477168392887	c	67
377854	4077464	I'll ask, he just came by.	I'll ask, he just came by.	193700764	1477168393021	1477168393249	a	65
377854	4077464	I'll ask, he just came by.	I'll ask, he just came by.	193700767	1477168393229	1477168393362	m	77
377854	4077464	I'll ask, he just came by.	I'll ask, he just came by.	193700769	1477168393377	1477168393524	e	69
377854	4077464	I'll ask, he just came by.	I'll ask, he just came by.	193700771	1477168393524	1477168393651	 	32
377854	4077464	I'll ask, he just came by.	I'll ask, he just came by.	193700772	1477168393749	1477168393848	b	66
377854	4077464	I'll ask, he just came by.	I'll ask, he just came by.	193700807	1477168394014	1477168394095	u	89
377854	4077464	I'll ask, he just came by.	I'll ask, he just came by.	193700809	1477168394535	1477168394635	BKSP	8
377854	4077464	I'll ask, he just came by.	I'll ask, he just came by.	193700810	1477168395207	1477168395300	.	190
377854	4077472	Please let me know what days you plan on taking off.	Please let me know what days you plan on taking off.	193700911	1477168398093	1477168398643	SHIFT	16
377854	4077472	Please let me know what days you plan on taking off.	Please let me know what days you plan on taking off.	193700908	1477168398508	1477168398596	P	80
377854	4077472	Please let me know what days you plan on taking off.	Please let me know what days you plan on taking off.	193700914	1477168398737	1477168398859	l	76
377854	4077472	Please let me know what days you plan on taking off.	Please let me know what days you plan on taking off.	193700919	1477168398837	1477168398949	e	69
377854	4077472	Please let me know what days you plan on taking off.	Please let me know what days you plan on taking off.	193700923	1477168399028	1477168399247	a	65
377854	4077472	Please let me know what days you plan on taking off.	Please let me know what days you plan on taking off.	193700949	1477168399191	1477168399337	s	83
377854	4077472	Please let me know what days you plan on taking off.	Please let me know what days you plan on taking off.	193700951	1477168399450	1477168399593	e	69
377854	4077472	Please let me know what days you plan on taking off.	Please let me know what days you plan on taking off.	193700953	1477168399640	1477168399761	 	32
377854	4077472	Please let me know what days you plan on taking off.	Please let me know what days you plan on taking off.	193700955	1477168399793	1477168399965	l	76
377854	4077472	Please let me know what days you plan on taking off.	Please let me know what days you plan on taking off.	193700956	1477168399948	1477168400083	e	69
377854	4077472	Please let me know what days you plan on taking off.	Please let me know what days you plan on taking off.	193700957	1477168400130	1477168400271	 	32
377854	4077472	Please let me know what days you plan on taking off.	Please let me know what days you plan on taking off.	193700997	1477168400361	1477168400496	m	77
377854	4077472	Please let me know what days you plan on taking off.	Please let me know what days you plan on taking off.	193700999	1477168400757	1477168400840	BKSP	8
377854	4077472	Please let me know what days you plan on taking off.	Please let me know what days you plan on taking off.	193701000	1477168400905	1477168401065	BKSP	8
377854	4077472	Please let me know what days you plan on taking off.	Please let me know what days you plan on taking off.	193701001	1477168401080	1477168401225	r	82
377854	4077472	Please let me know what days you plan on taking off.	Please let me know what days you plan on taking off.	193701002	1477168401240	1477168401338	 	32
377854	4077472	Please let me know what days you plan on taking off.	Please let me know what days you plan on taking off.	193701003	1477168401545	1477168401646	BKSP	8
377854	4077472	Please let me know what days you plan on taking off.	Please let me know what days you plan on taking off.	193701004	1477168401693	1477168401861	BKSP	8
377854	4077472	Please let me know what days you plan on taking off.	Please let me know what days you plan on taking off.	193701005	1477168401792	1477168401911	t	84
377854	4077472	Please let me know what days you plan on taking off.	Please let me know what days you plan on taking off.	193701107	1477168401876	1477168401983	 	32
377854	4077472	Please let me know what days you plan on taking off.	Please let me know what days you plan on taking off.	193701112	1477168402259	1477168402377	m	77
377854	4077472	Please let me know what days you plan on taking off.	Please let me know what days you plan on taking off.	193701116	1477168402441	1477168402562	e	69
377854	4077472	Please let me know what days you plan on taking off.	Please let me know what days you plan on taking off.	193701120	1477168402577	1477168402710	 	32
377854	4077472	Please let me know what days you plan on taking off.	Please let me know what days you plan on taking off.	193701126	1477168402819	1477168402905	k	75
377854	4077472	Please let me know what days you plan on taking off.	Please let me know what days you plan on taking off.	193701131	1477168403546	1477168403638	n	78
377854	4077472	Please let me know what days you plan on taking off.	Please let me know what days you plan on taking off.	193701108	1477168403743	1477168403854	o	79
377854	4077472	Please let me know what days you plan on taking off.	Please let me know what days you plan on taking off.	193701113	1477168403910	1477168404015	w	87
377854	4077472	Please let me know what days you plan on taking off.	Please let me know what days you plan on taking off.	193701117	1477168404062	1477168404169	 	32
377854	4077472	Please let me know what days you plan on taking off.	Please let me know what days you plan on taking off.	193701121	1477168404216	1477168404342	w	87
377854	4077472	Please let me know what days you plan on taking off.	Please let me know what days you plan on taking off.	193701145	1477168404333	1477168404442	h	72
377854	4077472	Please let me know what days you plan on taking off.	Please let me know what days you plan on taking off.	193701147	1477168404763	1477168404924	a	65
377854	4077472	Please let me know what days you plan on taking off.	Please let me know what days you plan on taking off.	193701148	1477168405032	1477168405167	t	84
377854	4077472	Please let me know what days you plan on taking off.	Please let me know what days you plan on taking off.	193701149	1477168405198	1477168405327	 	32
377854	4077472	Please let me know what days you plan on taking off.	Please let me know what days you plan on taking off.	193701150	1477168406110	1477168406309	d	68
377854	4077472	Please let me know what days you plan on taking off.	Please let me know what days you plan on taking off.	193701188	1477168406266	1477168406474	a	65
377854	4077472	Please let me know what days you plan on taking off.	Please let me know what days you plan on taking off.	193701189	1477168406478	1477168406554	y	89
377854	4077472	Please let me know what days you plan on taking off.	Please let me know what days you plan on taking off.	193701190	1477168406632	1477168406813	s	83
377854	4077472	Please let me know what days you plan on taking off.	Please let me know what days you plan on taking off.	193701191	1477168406860	1477168406945	 	32
377854	4077472	Please let me know what days you plan on taking off.	Please let me know what days you plan on taking off.	193701192	1477168407205	1477168407316	y	89
377854	4077472	Please let me know what days you plan on taking off.	Please let me know what days you plan on taking off.	193701194	1477168407394	1477168407584	o	79
377854	4077472	Please let me know what days you plan on taking off.	Please let me know what days you plan on taking off.	193701229	1477168407550	1477168407705	u	85
377854	4077472	Please let me know what days you plan on taking off.	Please let me know what days you plan on taking off.	193701233	1477168407736	1477168407869	 	32
377854	4077472	Please let me know what days you plan on taking off.	Please let me know what days you plan on taking off.	193701236	1477168407947	1477168408101	p	80
377854	4077472	Please let me know what days you plan on taking off.	Please let me know what days you plan on taking off.	193701240	1477168408227	1477168408334	l	76
377854	4077472	Please let me know what days you plan on taking off.	Please let me know what days you plan on taking off.	193701244	1477168408319	1477168408521	a	65
377854	4077472	Please let me know what days you plan on taking off.	Please let me know what days you plan on taking off.	193701248	1477168408549	1477168408813	c	67
377854	4077472	Please let me know what days you plan on taking off.	Please let me know what days you plan on taking off.	193701334	1477168408732	1477168408872	e	69
377854	4077472	Please let me know what days you plan on taking off.	Please let me know what days you plan on taking off.	193701336	1477168408981	1477168409069	 	32
377854	4077472	Please let me know what days you plan on taking off.	Please let me know what days you plan on taking off.	193701338	1477168409255	1477168409321	BKSP	8
377854	4077472	Please let me know what days you plan on taking off.	Please let me know what days you plan on taking off.	193701340	1477168409415	1477168409514	BKSP	8
377854	4077472	Please let me know what days you plan on taking off.	Please let me know what days you plan on taking off.	193701341	1477168409564	1477168409700	BKSP	8
377854	4077472	Please let me know what days you plan on taking off.	Please let me know what days you plan on taking off.	193701342	1477168409997	1477168410068	n	78
377854	4077472	Please let me know what days you plan on taking off.	Please let me know what days you plan on taking off.	193701343	1477168410186	1477168410302	e	69
377854	4077472	Please let me know what days you plan on taking off.	Please let me know what days you plan on taking off.	193701344	1477168410396	1477168410487	 	32
377854	4077472	Please let me know what days you plan on taking off.	Please let me know what days you plan on taking off.	193701345	1477168411159	1477168411261	BKSP	8
377854	4077472	Please let me know what days you plan on taking off.	Please let me know what days you plan on taking off.	193701347	1477168411324	1477168411458	BKSP	8
377854	4077472	Please let me know what days you plan on taking off.	Please let me know what days you plan on taking off.	193701352	1477168411504	1477168411614	 	32
377854	4077472	Please let me know what days you plan on taking off.	Please let me know what days you plan on taking off.	193701394	1477168411733	1477168411820	o	79
377854	4077472	Please let me know what days you plan on taking off.	Please let me know what days you plan on taking off.	193701396	1477168411919	1477168412050	n	78
377854	4077472	Please let me know what days you plan on taking off.	Please let me know what days you plan on taking off.	193701398	1477168412116	1477168412217	 	32
377854	4077472	Please let me know what days you plan on taking off.	Please let me know what days you plan on taking off.	193701402	1477168412530	1477168412703	t	84
377854	4077472	Please let me know what days you plan on taking off.	Please let me know what days you plan on taking off.	193701399	1477168412683	1477168412857	a	65
377854	4077472	Please let me know what days you plan on taking off.	Please let me know what days you plan on taking off.	193701403	1477168412904	1477168413012	k	75
377854	4077472	Please let me know what days you plan on taking off.	Please let me know what days you plan on taking off.	193701406	1477168413382	1477168413549	i	73
377854	4077472	Please let me know what days you plan on taking off.	Please let me know what days you plan on taking off.	193701408	1477168413609	1477168413737	n	78
377854	4077472	Please let me know what days you plan on taking off.	Please let me know what days you plan on taking off.	193701410	1477168413726	1477168413852	g	71
377854	4077472	Please let me know what days you plan on taking off.	Please let me know what days you plan on taking off.	193701413	1477168413868	1477168413988	 	32
377854	4077472	Please let me know what days you plan on taking off.	Please let me know what days you plan on taking off.	193701446	1477168414020	1477168414147	o	79
377854	4077472	Please let me know what days you plan on taking off.	Please let me know what days you plan on taking off.	193701448	1477168414350	1477168414469	f	70
377854	4077472	Please let me know what days you plan on taking off.	Please let me know what days you plan on taking off.	193701450	1477168414515	1477168414623	f	70
377854	4077472	Please let me know what days you plan on taking off.	Please let me know what days you plan on taking off.	193701453	1477168414670	1477168414784	.	190
377854	4077488	I will be taking the first week in December off, though.	I will be taking the first week in December off, though.	193701597	1477168417280	1477168417804	SHIFT	16
377854	4077488	I will be taking the first week in December off, though.	I will be taking the first week in December off, though.	193701599	1477168417714	1477168417820	I	73
377854	4077488	I will be taking the first week in December off, though.	I will be taking the first week in December off, though.	193701601	1477168417867	1477168418009	 	32
377854	4077488	I will be taking the first week in December off, though.	I will be taking the first week in December off, though.	193701603	1477168418024	1477168418181	w	87
377854	4077488	I will be taking the first week in December off, though.	I will be taking the first week in December off, though.	193701604	1477168418153	1477168418237	i	73
377854	4077488	I will be taking the first week in December off, though.	I will be taking the first week in December off, though.	193701606	1477168418330	1477168418433	l	76
377854	4077488	I will be taking the first week in December off, though.	I will be taking the first week in December off, though.	193701618	1477168418493	1477168418595	l	76
377854	4077488	I will be taking the first week in December off, though.	I will be taking the first week in December off, though.	193701620	1477168418610	1477168418760	 	32
377854	4077488	I will be taking the first week in December off, though.	I will be taking the first week in December off, though.	193701622	1477168418874	1477168418985	b	66
377854	4077488	I will be taking the first week in December off, though.	I will be taking the first week in December off, though.	193701624	1477168419016	1477168419153	e	69
377854	4077488	I will be taking the first week in December off, though.	I will be taking the first week in December off, though.	193701627	1477168419167	1477168419269	 	32
377854	4077488	I will be taking the first week in December off, though.	I will be taking the first week in December off, though.	193701655	1477168419347	1477168419492	t	84
377854	4077488	I will be taking the first week in December off, though.	I will be taking the first week in December off, though.	193701657	1477168419492	1477168419687	a	65
377854	4077488	I will be taking the first week in December off, though.	I will be taking the first week in December off, though.	193701660	1477168419633	1477168419750	k	75
377854	4077488	I will be taking the first week in December off, though.	I will be taking the first week in December off, though.	193701663	1477168419828	1477168419936	i	73
377854	4077488	I will be taking the first week in December off, though.	I will be taking the first week in December off, though.	193701665	1477168419967	1477168420124	n	78
377854	4077488	I will be taking the first week in December off, though.	I will be taking the first week in December off, though.	193701693	1477168420134	1477168420246	g	71
377854	4077488	I will be taking the first week in December off, though.	I will be taking the first week in December off, though.	193701694	1477168420277	1477168420393	 	32
377854	4077488	I will be taking the first week in December off, though.	I will be taking the first week in December off, though.	193701696	1477168420580	1477168420715	t	84
377854	4077488	I will be taking the first week in December off, though.	I will be taking the first week in December off, though.	193701699	1477168420715	1477168420820	h	72
377854	4077488	I will be taking the first week in December off, though.	I will be taking the first week in December off, though.	193701701	1477168420851	1477168421010	e	69
377854	4077488	I will be taking the first week in December off, though.	I will be taking the first week in December off, though.	193701814	1477168421007	1477168421078	 	32
377854	4077488	I will be taking the first week in December off, though.	I will be taking the first week in December off, though.	193701816	1477168421432	1477168421587	f	70
377854	4077488	I will be taking the first week in December off, though.	I will be taking the first week in December off, though.	193701817	1477168421553	1477168421686	i	73
377854	4077488	I will be taking the first week in December off, though.	I will be taking the first week in December off, though.	193701819	1477168421715	1477168421840	r	82
377854	4077488	I will be taking the first week in December off, though.	I will be taking the first week in December off, though.	193701822	1477168422001	1477168422085	t	84
377854	4077488	I will be taking the first week in December off, though.	I will be taking the first week in December off, though.	193701825	1477168422264	1477168422370	 	32
377854	4077488	I will be taking the first week in December off, though.	I will be taking the first week in December off, though.	193701904	1477168422706	1477168422835	BKSP	8
377854	4077488	I will be taking the first week in December off, though.	I will be taking the first week in December off, though.	193701905	1477168422960	1477168423044	BKSP	8
377854	4077488	I will be taking the first week in December off, though.	I will be taking the first week in December off, though.	193701906	1477168423091	1477168423176	BKSP	8
377854	4077488	I will be taking the first week in December off, though.	I will be taking the first week in December off, though.	193701909	1477168423967	1477168424086	r	82
377854	4077488	I will be taking the first week in December off, though.	I will be taking the first week in December off, though.	193701910	1477168424174	1477168424310	s	83
377854	4077488	I will be taking the first week in December off, though.	I will be taking the first week in December off, though.	193701911	1477168424388	1477168424524	t	84
377854	4077488	I will be taking the first week in December off, though.	I will be taking the first week in December off, though.	193701912	1477168424555	1477168424673	 	32
377854	4077488	I will be taking the first week in December off, though.	I will be taking the first week in December off, though.	193701913	1477168425147	1477168425296	w	87
377854	4077488	I will be taking the first week in December off, though.	I will be taking the first week in December off, though.	193701944	1477168425831	1477168425928	e	69
377854	4077488	I will be taking the first week in December off, though.	I will be taking the first week in December off, though.	193701946	1477168425991	1477168426088	e	69
377854	4077488	I will be taking the first week in December off, though.	I will be taking the first week in December off, though.	193701948	1477168426065	1477168426206	k	75
377854	4077488	I will be taking the first week in December off, though.	I will be taking the first week in December off, though.	193701950	1477168426206	1477168426371	 	32
377854	4077488	I will be taking the first week in December off, though.	I will be taking the first week in December off, though.	193701952	1477168426371	1477168426501	i	73
377854	4077488	I will be taking the first week in December off, though.	I will be taking the first week in December off, though.	193702002	1477168426532	1477168426715	n	78
377854	4077488	I will be taking the first week in December off, though.	I will be taking the first week in December off, though.	193702004	1477168426744	1477168426858	 	32
377854	4077488	I will be taking the first week in December off, though.	I will be taking the first week in December off, though.	193702006	1477168427030	1477168427632	SHIFT	16
377854	4077488	I will be taking the first week in December off, though.	I will be taking the first week in December off, though.	193702009	1477168427455	1477168427648	D	68
377854	4077488	I will be taking the first week in December off, though.	I will be taking the first week in December off, though.	193702012	1477168427710	1477168427871	e	69
377854	4077488	I will be taking the first week in December off, though.	I will be taking the first week in December off, though.	193702014	1477168428070	1477168428200	c	67
377854	4077488	I will be taking the first week in December off, though.	I will be taking the first week in December off, though.	193702069	1477168429017	1477168429150	e	69
377854	4077488	I will be taking the first week in December off, though.	I will be taking the first week in December off, though.	193702071	1477168429197	1477168429310	m	77
377854	4077488	I will be taking the first week in December off, though.	I will be taking the first week in December off, though.	193702075	1477168429439	1477168429551	b	66
377854	4077488	I will be taking the first week in December off, though.	I will be taking the first week in December off, though.	193702077	1477168429692	1477168429879	e	69
377854	4077488	I will be taking the first week in December off, though.	I will be taking the first week in December off, though.	193702148	1477168429847	1477168430004	r	82
377854	4077488	I will be taking the first week in December off, though.	I will be taking the first week in December off, though.	193702152	1477168429989	1477168430085	 	32
377854	4077488	I will be taking the first week in December off, though.	I will be taking the first week in December off, though.	193702157	1477168430241	1477168430331	o	79
377854	4077488	I will be taking the first week in December off, though.	I will be taking the first week in December off, though.	193702160	1477168430534	1477168430650	f	70
377854	4077488	I will be taking the first week in December off, though.	I will be taking the first week in December off, though.	193702166	1477168430713	1477168430832	f	70
377854	4077488	I will be taking the first week in December off, though.	I will be taking the first week in December off, though.	193702171	1477168430895	1477168431056	,	188
377854	4077488	I will be taking the first week in December off, though.	I will be taking the first week in December off, though.	193702217	1477168431102	1477168431254	 	32
377854	4077488	I will be taking the first week in December off, though.	I will be taking the first week in December off, though.	193702222	1477168431426	1477168432020	SHIFT	16
377854	4077488	I will be taking the first week in December off, though.	I will be taking the first week in December off, though.	193702227	1477168432381	1477168432501	t	84
377854	4077488	I will be taking the first week in December off, though.	I will be taking the first week in December off, though.	193702231	1477168432517	1477168432638	h	72
377854	4077488	I will be taking the first week in December off, though.	I will be taking the first week in December off, though.	193702235	1477168432748	1477168432882	o	79
377854	4077488	I will be taking the first week in December off, though.	I will be taking the first week in December off, though.	193702237	1477168432929	1477168433049	u	85
377854	4077488	I will be taking the first week in December off, though.	I will be taking the first week in December off, though.	193702280	1477168433077	1477168433209	g	71
377854	4077488	I will be taking the first week in December off, though.	I will be taking the first week in December off, though.	193702282	1477168433225	1477168433307	h	72
377854	4077488	I will be taking the first week in December off, though.	I will be taking the first week in December off, though.	193702284	1477168433708	1477168433826	.	190
377854	4077504	Don't bother picking him up.	Don't bother picking him up.	193702540	1477168436308	1477168436667	SHIFT	16
377854	4077504	Don't bother picking him up.	Don't bother picking him up.	193702538	1477168436540	1477168436636	B	66
377854	4077504	Don't bother picking him up.	Don't bother picking him up.	193702542	1477168437181	1477168437286	BKSP	8
377854	4077504	Don't bother picking him up.	Don't bother picking him up.	193702544	1477168437399	1477168437975	SHIFT	16
377854	4077504	Don't bother picking him up.	Don't bother picking him up.	193702545	1477168437810	1477168437990	D	68
377854	4077504	Don't bother picking him up.	Don't bother picking him up.	193702546	1477168438006	1477168438132	o	79
377854	4077504	Don't bother picking him up.	Don't bother picking him up.	193702547	1477168439146	1477168439261	BKSP	8
377854	4077504	Don't bother picking him up.	Don't bother picking him up.	193702548	1477168439324	1477168439462	n	78
377854	4077504	Don't bother picking him up.	Don't bother picking him up.	193702549	1477168439769	1477168439871	BKSP	8
377854	4077504	Don't bother picking him up.	Don't bother picking him up.	193702551	1477168440009	1477168440110	o	79
377854	4077504	Don't bother picking him up.	Don't bother picking him up.	193702575	1477168440110	1477168440241	n	78
377854	4077504	Don't bother picking him up.	Don't bother picking him up.	193702577	1477168441226	1477168441327	;	186
377854	4077504	Don't bother picking him up.	Don't bother picking him up.	193702580	1477168441311	1477168441432	t	84
377854	4077504	Don't bother picking him up.	Don't bother picking him up.	193702582	1477168441511	1477168441618	 	32
377854	4077504	Don't bother picking him up.	Don't bother picking him up.	193702584	1477168441866	1477168441963	BKSP	8
377854	4077504	Don't bother picking him up.	Don't bother picking him up.	193702586	1477168442030	1477168442143	BKSP	8
377854	4077504	Don't bother picking him up.	Don't bother picking him up.	193702589	1477168442189	1477168442317	BKSP	8
377854	4077504	Don't bother picking him up.	Don't bother picking him up.	193702594	1477168442825	1477168442930	'	222
377854	4077504	Don't bother picking him up.	Don't bother picking him up.	193702639	1477168443044	1477168443160	t	84
377854	4077504	Don't bother picking him up.	Don't bother picking him up.	193702643	1477168443222	1477168443339	 	32
377854	4077504	Don't bother picking him up.	Don't bother picking him up.	193702646	1477168443543	1477168443618	b	66
377854	4077504	Don't bother picking him up.	Don't bother picking him up.	193702649	1477168443665	1477168443806	e	69
377854	4077504	Don't bother picking him up.	Don't bother picking him up.	193702652	1477168443854	1477168443948	 	32
377854	4077504	Don't bother picking him up.	Don't bother picking him up.	193702733	1477168444201	1477168444319	BKSP	8
377854	4077504	Don't bother picking him up.	Don't bother picking him up.	193702737	1477168444718	1477168444849	BKSP	8
377854	4077504	Don't bother picking him up.	Don't bother picking him up.	193702739	1477168445203	1477168445326	o	79
377854	4077504	Don't bother picking him up.	Don't bother picking him up.	193702743	1477168445389	1477168445514	t	84
377854	4077504	Don't bother picking him up.	Don't bother picking him up.	193702746	1477168445530	1477168445627	h	72
377854	4077504	Don't bother picking him up.	Don't bother picking him up.	193702752	1477168445674	1477168445837	e	69
377854	4077504	Don't bother picking him up.	Don't bother picking him up.	193702793	1477168445785	1477168445995	r	82
377854	4077504	Don't bother picking him up.	Don't bother picking him up.	193702796	1477168445991	1477168446109	 	32
377854	4077504	Don't bother picking him up.	Don't bother picking him up.	193702802	1477168446564	1477168446653	p	80
377854	4077504	Don't bother picking him up.	Don't bother picking him up.	193702812	1477168446762	1477168446858	i	73
377854	4077504	Don't bother picking him up.	Don't bother picking him up.	193702819	1477168447013	1477168447101	v	86
377854	4077504	Don't bother picking him up.	Don't bother picking him up.	193702824	1477168447231	1477168447302	k	75
377854	4077504	Don't bother picking him up.	Don't bother picking him up.	193702939	1477168447598	1477168447686	BKSP	8
377854	4077504	Don't bother picking him up.	Don't bother picking him up.	193702941	1477168447749	1477168447851	BKSP	8
377854	4077504	Don't bother picking him up.	Don't bother picking him up.	193702943	1477168447866	1477168448011	c	67
377854	4077504	Don't bother picking him up.	Don't bother picking him up.	193702946	1477168448065	1477168448154	k	75
377854	4077504	Don't bother picking him up.	Don't bother picking him up.	193702951	1477168448279	1477168448354	i	73
377854	4077504	Don't bother picking him up.	Don't bother picking him up.	193702961	1477168448447	1477168448544	n	78
377854	4077504	Don't bother picking him up.	Don't bother picking him up.	193702969	1477168448594	1477168448718	g	71
377854	4077504	Don't bother picking him up.	Don't bother picking him up.	193702966	1477168448750	1477168448874	 	32
377854	4077504	Don't bother picking him up.	Don't bother picking him up.	193702971	1477168448952	1477168449049	m	77
377854	4077504	Don't bother picking him up.	Don't bother picking him up.	193702978	1477168449299	1477168449378	BKSP	8
377854	4077504	Don't bother picking him up.	Don't bother picking him up.	193702986	1477168449754	1477168449862	h	72
377854	4077504	Don't bother picking him up.	Don't bother picking him up.	193702989	1477168449933	1477168450048	i	73
377854	4077504	Don't bother picking him up.	Don't bother picking him up.	193702991	1477168450126	1477168450233	m	77
377854	4077504	Don't bother picking him up.	Don't bother picking him up.	193703061	1477168450309	1477168450441	 	32
377854	4077504	Don't bother picking him up.	Don't bother picking him up.	193703064	1477168450551	1477168450637	u	85
377854	4077504	Don't bother picking him up.	Don't bother picking him up.	193703067	1477168450746	1477168450834	p	80
377854	4077504	Don't bother picking him up.	Don't bother picking him up.	193703068	1477168451144	1477168451217	/	191
377854	4077504	Don't bother picking him up.	Don't bother picking him up.	193703069	1477168451737	1477168451809	BKSP	8
377854	4077504	Don't bother picking him up.	Don't bother picking him up.	193703070	1477168452282	1477168452350	.	190
377854	4077524	He is here for a political meeting.	He is here for a political meeting.	193703263	1477168455899	1477168456378	SHIFT	16
377854	4077524	He is here for a political meeting.	He is here for a political meeting.	193703260	1477168456276	1477168456358	H	72
377854	4077524	He is here for a political meeting.	He is here for a political meeting.	193703270	1477168456535	1477168456667	e	69
377854	4077524	He is here for a political meeting.	He is here for a political meeting.	193703274	1477168456646	1477168456798	 	32
377854	4077524	He is here for a political meeting.	He is here for a political meeting.	193703279	1477168456814	1477168456967	i	73
377854	4077524	He is here for a political meeting.	He is here for a political meeting.	193703282	1477168456982	1477168457129	s	83
377854	4077524	He is here for a political meeting.	He is here for a political meeting.	193703376	1477168457145	1477168457257	 	32
377854	4077524	He is here for a political meeting.	He is here for a political meeting.	193703381	1477168457908	1477168458018	h	72
377854	4077524	He is here for a political meeting.	He is here for a political meeting.	193703386	1477168458049	1477168458237	e	69
377854	4077524	He is here for a political meeting.	He is here for a political meeting.	193703393	1477168458229	1477168458393	r	82
377854	4077524	He is here for a political meeting.	He is here for a political meeting.	193703380	1477168458349	1477168458527	e	69
377854	4077524	He is here for a political meeting.	He is here for a political meeting.	193703383	1477168458503	1477168458681	 	32
377854	4077524	He is here for a political meeting.	He is here for a political meeting.	193703388	1477168458775	1477168458912	f	70
377854	4077524	He is here for a political meeting.	He is here for a political meeting.	193703391	1477168458900	1477168459032	o	79
377854	4077524	He is here for a political meeting.	He is here for a political meeting.	193703395	1477168459063	1477168459196	r	82
377854	4077524	He is here for a political meeting.	He is here for a political meeting.	193703397	1477168459243	1477168459342	 	32
377854	4077524	He is here for a political meeting.	He is here for a political meeting.	193703431	1477168459622	1477168459831	a	65
377854	4077524	He is here for a political meeting.	He is here for a political meeting.	193703433	1477168459804	1477168459949	 	32
377854	4077524	He is here for a political meeting.	He is here for a political meeting.	193703435	1477168460487	1477168460573	p	80
377854	4077524	He is here for a political meeting.	He is here for a political meeting.	193703437	1477168460695	1477168460768	o	79
377854	4077524	He is here for a political meeting.	He is here for a political meeting.	193703439	1477168460924	1477168461035	l	76
377854	4077524	He is here for a political meeting.	He is here for a political meeting.	193703574	1477168461227	1477168461309	i	73
377854	4077524	He is here for a political meeting.	He is here for a political meeting.	193703576	1477168462580	1477168462684	t	84
377854	4077524	He is here for a political meeting.	He is here for a political meeting.	193703578	1477168462856	1477168462967	i	73
377854	4077524	He is here for a political meeting.	He is here for a political meeting.	193703581	1477168463994	1477168464180	c	67
377854	4077524	He is here for a political meeting.	He is here for a political meeting.	193703585	1477168464180	1477168464368	a	65
377854	4077524	He is here for a political meeting.	He is here for a political meeting.	193703743	1477168464355	1477168464508	l	76
377854	4077524	He is here for a political meeting.	He is here for a political meeting.	193703746	1477168464605	1477168464725	 	32
377854	4077524	He is here for a political meeting.	He is here for a political meeting.	193703749	1477168464859	1477168464984	m	77
377854	4077524	He is here for a political meeting.	He is here for a political meeting.	193703753	1477168465093	1477168465344	e	69
377854	4077524	He is here for a political meeting.	He is here for a political meeting.	193703759	1477168466200	1477168466376	e	69
377854	4077524	He is here for a political meeting.	He is here for a political meeting.	193703768	1477168466423	1477168466603	t	84
377854	4077524	He is here for a political meeting.	He is here for a political meeting.	193703745	1477168466581	1477168466746	i	73
377854	4077524	He is here for a political meeting.	He is here for a political meeting.	193703748	1477168466761	1477168466887	n	78
377854	4077524	He is here for a political meeting.	He is here for a political meeting.	193703751	1477168466904	1477168467053	g	71
377854	4077524	He is here for a political meeting.	He is here for a political meeting.	193703756	1477168467039	1477168467180	.	190
377854	4077540	I am looking forward to the salad.	I am looking forward to the salad.	193703902	1477168470439	1477168470942	SHIFT	16
377854	4077540	I am looking forward to the salad.	I am looking forward to the salad.	193703906	1477168470869	1477168470958	I	73
377854	4077540	I am looking forward to the salad.	I am looking forward to the salad.	193703910	1477168471020	1477168471163	 	32
377854	4077540	I am looking forward to the salad.	I am looking forward to the salad.	193703913	1477168471178	1477168471350	a	65
377854	4077540	I am looking forward to the salad.	I am looking forward to the salad.	193703916	1477168471338	1477168471474	m	77
377854	4077540	I am looking forward to the salad.	I am looking forward to the salad.	193703919	1477168471474	1477168471605	 	32
377854	4077540	I am looking forward to the salad.	I am looking forward to the salad.	193703973	1477168471970	1477168472060	l	76
377854	4077540	I am looking forward to the salad.	I am looking forward to the salad.	193703976	1477168472504	1477168472610	o	79
377854	4077540	I am looking forward to the salad.	I am looking forward to the salad.	193703981	1477168472657	1477168472766	o	79
377854	4077540	I am looking forward to the salad.	I am looking forward to the salad.	193703986	1477168472829	1477168472948	k	75
377854	4077540	I am looking forward to the salad.	I am looking forward to the salad.	193703991	1477168473167	1477168473290	n	78
377854	4077540	I am looking forward to the salad.	I am looking forward to the salad.	193704151	1477168473344	1477168473496	g	71
377854	4077540	I am looking forward to the salad.	I am looking forward to the salad.	193704156	1477168473464	1477168473608	 	32
377854	4077540	I am looking forward to the salad.	I am looking forward to the salad.	193704160	1477168473865	1477168473997	f	70
377854	4077540	I am looking forward to the salad.	I am looking forward to the salad.	193704164	1477168474013	1477168474118	o	79
377854	4077540	I am looking forward to the salad.	I am looking forward to the salad.	193704170	1477168474398	1477168474524	BKSP	8
377854	4077540	I am looking forward to the salad.	I am looking forward to the salad.	193704176	1477168474555	1477168474675	BKSP	8
377854	4077540	I am looking forward to the salad.	I am looking forward to the salad.	193704180	1477168474722	1477168474823	BKSP	8
377854	4077540	I am looking forward to the salad.	I am looking forward to the salad.	193704184	1477168474881	1477168475029	BKSP	8
377854	4077540	I am looking forward to the salad.	I am looking forward to the salad.	193704186	1477168475060	1477168475205	BKSP	8
377854	4077540	I am looking forward to the salad.	I am looking forward to the salad.	193704189	1477168475457	1477168475576	i	73
377854	4077540	I am looking forward to the salad.	I am looking forward to the salad.	193704152	1477168475667	1477168475783	n	78
377854	4077540	I am looking forward to the salad.	I am looking forward to the salad.	193704155	1477168475930	1477168476107	g	71
377854	4077540	I am looking forward to the salad.	I am looking forward to the salad.	193704158	1477168476087	1477168476247	 	32
377854	4077540	I am looking forward to the salad.	I am looking forward to the salad.	193704162	1477168476310	1477168476474	f	70
377854	4077540	I am looking forward to the salad.	I am looking forward to the salad.	193704166	1477168476490	1477168476622	o	79
377854	4077540	I am looking forward to the salad.	I am looking forward to the salad.	193704217	1477168476731	1477168476855	r	82
377854	4077540	I am looking forward to the salad.	I am looking forward to the salad.	193704218	1477168477490	1477168477601	w	87
377854	4077540	I am looking forward to the salad.	I am looking forward to the salad.	193704219	1477168477804	1477168477993	a	65
377854	4077540	I am looking forward to the salad.	I am looking forward to the salad.	193704220	1477168478390	1477168478507	r	82
377854	4077540	I am looking forward to the salad.	I am looking forward to the salad.	193704221	1477168479053	1477168479198	d	68
377854	4077540	I am looking forward to the salad.	I am looking forward to the salad.	193704240	1477168479211	1477168479373	 	32
377854	4077540	I am looking forward to the salad.	I am looking forward to the salad.	193704244	1477168479333	1477168479507	t	84
377854	4077540	I am looking forward to the salad.	I am looking forward to the salad.	193704249	1477168479492	1477168479639	o	79
377854	4077540	I am looking forward to the salad.	I am looking forward to the salad.	193704252	1477168479655	1477168479802	 	32
377854	4077540	I am looking forward to the salad.	I am looking forward to the salad.	193704303	1477168479708	1477168479843	t	84
377854	4077540	I am looking forward to the salad.	I am looking forward to the salad.	193704304	1477168479945	1477168480085	h	72
377854	4077540	I am looking forward to the salad.	I am looking forward to the salad.	193704307	1477168480082	1477168480181	e	69
377854	4077540	I am looking forward to the salad.	I am looking forward to the salad.	193704309	1477168480399	1477168480507	 	32
377854	4077540	I am looking forward to the salad.	I am looking forward to the salad.	193704311	1477168480773	1477168480936	s	83
377854	4077540	I am looking forward to the salad.	I am looking forward to the salad.	193704314	1477168480978	1477168481161	a	65
377854	4077540	I am looking forward to the salad.	I am looking forward to the salad.	193704386	1477168481203	1477168481347	l	76
377854	4077540	I am looking forward to the salad.	I am looking forward to the salad.	193704389	1477168481526	1477168481695	a	65
377854	4077540	I am looking forward to the salad.	I am looking forward to the salad.	193704392	1477168482462	1477168482636	d	68
377854	4077540	I am looking forward to the salad.	I am looking forward to the salad.	193704395	1477168482667	1477168482782	.	190
377854	4077554	I tried that to no avail.	I tried that to no avail.	193704765	1477168488923	1477168489310	SHIFT	16
377854	4077554	I tried that to no avail.	I tried that to no avail.	193704767	1477168489210	1477168489341	I	73
377854	4077554	I tried that to no avail.	I tried that to no avail.	193704769	1477168489404	1477168489545	 	32
377854	4077554	I tried that to no avail.	I tried that to no avail.	193704772	1477168489720	1477168489908	t	84
377854	4077554	I tried that to no avail.	I tried that to no avail.	193704775	1477168489849	1477168490033	r	82
377854	4077554	I tried that to no avail.	I tried that to no avail.	193704777	1477168490054	1477168490171	i	73
377854	4077554	I tried that to no avail.	I tried that to no avail.	193704828	1477168490847	1477168490980	e	69
377854	4077554	I tried that to no avail.	I tried that to no avail.	193704830	1477168491078	1477168491283	d	68
377854	4077554	I tried that to no avail.	I tried that to no avail.	193704832	1477168491251	1477168491413	 	32
377854	4077554	I tried that to no avail.	I tried that to no avail.	193704836	1477168491690	1477168491828	t	84
377854	4077554	I tried that to no avail.	I tried that to no avail.	193704867	1477168491808	1477168491940	h	72
377854	4077554	I tried that to no avail.	I tried that to no avail.	193704872	1477168491971	1477168492178	a	65
377854	4077554	I tried that to no avail.	I tried that to no avail.	193704879	1477168492112	1477168492315	t	84
377854	4077554	I tried that to no avail.	I tried that to no avail.	193704884	1477168492303	1477168492439	 	32
377854	4077554	I tried that to no avail.	I tried that to no avail.	193704889	1477168492455	1477168492609	t	84
377854	4077554	I tried that to no avail.	I tried that to no avail.	193704998	1477168492605	1477168492762	o	79
377854	4077554	I tried that to no avail.	I tried that to no avail.	193705000	1477168492793	1477168492917	 	32
377854	4077554	I tried that to no avail.	I tried that to no avail.	193705004	1477168492979	1477168493100	n	78
377854	4077554	I tried that to no avail.	I tried that to no avail.	193705006	1477168493162	1477168493314	o	79
377854	4077554	I tried that to no avail.	I tried that to no avail.	193705008	1477168493377	1477168493504	 	32
377854	4077554	I tried that to no avail.	I tried that to no avail.	193705010	1477168494063	1477168494256	a	65
377854	4077554	I tried that to no avail.	I tried that to no avail.	193705028	1477168494263	1477168494366	b	66
377854	4077554	I tried that to no avail.	I tried that to no avail.	193705030	1477168494741	1477168494873	BKSP	8
377854	4077554	I tried that to no avail.	I tried that to no avail.	193705031	1477168495654	1477168495805	v	86
377854	4077554	I tried that to no avail.	I tried that to no avail.	193705032	1477168495820	1477168495970	a	65
377854	4077554	I tried that to no avail.	I tried that to no avail.	193705033	1477168496079	1477168496182	i	73
377854	4077554	I tried that to no avail.	I tried that to no avail.	193705034	1477168496422	1477168496517	l	76
377854	4077554	I tried that to no avail.	I tried that to no avail.	193705057	1477168496755	1477168496849	.	190
377854	4077569	I'm pleased with my speeds.	I'm pleased with my speeds.	193705278	1477168501125	1477168501479	SHIFT	16
377854	4077569	I'm pleased with my speeds.	I'm pleased with my speeds.	193705277	1477168501354	1477168501432	I	73
377854	4077569	I'm pleased with my speeds.	I'm pleased with my speeds.	193705279	1477168501959	1477168502051	'	222
377854	4077569	I'm pleased with my speeds.	I'm pleased with my speeds.	193705280	1477168502663	1477168502844	m	77
377854	4077569	I'm pleased with my speeds.	I'm pleased with my speeds.	193705281	1477168502810	1477168502970	 	32
377854	4077569	I'm pleased with my speeds.	I'm pleased with my speeds.	193705282	1477168503032	1477168503133	p	80
377854	4077569	I'm pleased with my speeds.	I'm pleased with my speeds.	193705300	1477168504010	1477168504142	l	76
377854	4077569	I'm pleased with my speeds.	I'm pleased with my speeds.	193705302	1477168504130	1477168504264	e	69
377854	4077569	I'm pleased with my speeds.	I'm pleased with my speeds.	193705304	1477168504307	1477168504535	a	65
377854	4077569	I'm pleased with my speeds.	I'm pleased with my speeds.	193705307	1477168504462	1477168504676	s	83
377854	4077569	I'm pleased with my speeds.	I'm pleased with my speeds.	193705310	1477168504707	1477168504868	e	69
377854	4077569	I'm pleased with my speeds.	I'm pleased with my speeds.	193705382	1477168504976	1477168505144	d	68
377854	4077569	I'm pleased with my speeds.	I'm pleased with my speeds.	193705385	1477168505191	1477168505307	 	32
377854	4077569	I'm pleased with my speeds.	I'm pleased with my speeds.	193705389	1477168505561	1477168505745	w	87
377854	4077569	I'm pleased with my speeds.	I'm pleased with my speeds.	193705393	1477168506262	1477168506406	i	73
377854	4077569	I'm pleased with my speeds.	I'm pleased with my speeds.	193705398	1477168506422	1477168506532	t	84
377854	4077569	I'm pleased with my speeds.	I'm pleased with my speeds.	193705466	1477168506562	1477168506714	h	72
377854	4077569	I'm pleased with my speeds.	I'm pleased with my speeds.	193705468	1477168506745	1477168506892	 	32
377854	4077569	I'm pleased with my speeds.	I'm pleased with my speeds.	193705471	1477168507311	1477168507444	m	77
377854	4077569	I'm pleased with my speeds.	I'm pleased with my speeds.	193705474	1477168507569	1477168507680	u	85
377854	4077569	I'm pleased with my speeds.	I'm pleased with my speeds.	193705476	1477168507996	1477168508104	BKSP	8
377854	4077569	I'm pleased with my speeds.	I'm pleased with my speeds.	193705479	1477168508182	1477168508327	y	89
377854	4077569	I'm pleased with my speeds.	I'm pleased with my speeds.	193705510	1477168508343	1477168508451	 	32
377854	4077569	I'm pleased with my speeds.	I'm pleased with my speeds.	193705512	1477168508571	1477168508723	s	83
377854	4077569	I'm pleased with my speeds.	I'm pleased with my speeds.	193705517	1477168508754	1477168508861	p	80
377854	4077569	I'm pleased with my speeds.	I'm pleased with my speeds.	193705520	1477168509143	1477168509233	e	69
377854	4077569	I'm pleased with my speeds.	I'm pleased with my speeds.	193705524	1477168509329	1477168509426	e	69
377854	4077569	I'm pleased with my speeds.	I'm pleased with my speeds.	193705577	1477168510066	1477168510213	d	68
377854	4077569	I'm pleased with my speeds.	I'm pleased with my speeds.	193705580	1477168510244	1477168510388	s	83
377854	4077569	I'm pleased with my speeds.	I'm pleased with my speeds.	193705582	1477168510379	1477168510489	.	190
