PARTICIPANT_ID	TEST_SECTION_ID	SENTENCE	USER_INPUT	KEYSTROKE_ID	PRESS_TIME	RELEASE_TIME	LETTER	KEYCODE
45735	499934	The Senate should approve a 14-year-old treaty.	The senate should approve a 14-year-old treaty.	23798429	1472546593601	1472546594260	SHIFT	16
45735	499934	The Senate should approve a 14-year-old treaty.	The senate should approve a 14-year-old treaty.	23798427	1472546594119	1472546594245	T	84
45735	499934	The Senate should approve a 14-year-old treaty.	The senate should approve a 14-year-old treaty.	23798430	1472546594619	1472546594729	h	72
45735	499934	The Senate should approve a 14-year-old treaty.	The senate should approve a 14-year-old treaty.	23798431	1472546595025	1472546595200	e	69
45735	499934	The Senate should approve a 14-year-old treaty.	The senate should approve a 14-year-old treaty.	23798433	1472546595231	1472546595461	 	32
45735	499934	The Senate should approve a 14-year-old treaty.	The senate should approve a 14-year-old treaty.	23798435	1472546596229	1472546596371	s	83
45735	499934	The Senate should approve a 14-year-old treaty.	The senate should approve a 14-year-old treaty.	23798496	1472546596450	1472546596577	e	69
45735	499934	The Senate should approve a 14-year-old treaty.	The senate should approve a 14-year-old treaty.	23798497	1472546596917	1472546597060	n	78
45735	499934	The Senate should approve a 14-year-old treaty.	The senate should approve a 14-year-old treaty.	23798498	1472546597357	1472546597489	a	65
45735	499934	The Senate should approve a 14-year-old treaty.	The senate should approve a 14-year-old treaty.	23798499	1472546597931	1472546598029	t	84
45735	499934	The Senate should approve a 14-year-old treaty.	The senate should approve a 14-year-old treaty.	23798500	1472546598514	1472546598628	e	69
45735	499934	The Senate should approve a 14-year-old treaty.	The senate should approve a 14-year-old treaty.	23798635	1472546599010	1472546599151	 	32
45735	499934	The Senate should approve a 14-year-old treaty.	The senate should approve a 14-year-old treaty.	23798640	1472546600342	1472546600453	s	83
45735	499934	The Senate should approve a 14-year-old treaty.	The senate should approve a 14-year-old treaty.	23798645	1472546600843	1472546600969	h	72
45735	499934	The Senate should approve a 14-year-old treaty.	The senate should approve a 14-year-old treaty.	23798649	1472546601281	1472546601375	o	79
45735	499934	The Senate should approve a 14-year-old treaty.	The senate should approve a 14-year-old treaty.	23798654	1472546601515	1472546601612	u	85
45735	499934	The Senate should approve a 14-year-old treaty.	The senate should approve a 14-year-old treaty.	23798821	1472546602067	1472546602178	l	76
45735	499934	The Senate should approve a 14-year-old treaty.	The senate should approve a 14-year-old treaty.	23798825	1472546602585	1472546602756	d	68
45735	499934	The Senate should approve a 14-year-old treaty.	The senate should approve a 14-year-old treaty.	23798828	1472546603036	1472546603221	 	32
45735	499934	The Senate should approve a 14-year-old treaty.	The senate should approve a 14-year-old treaty.	23798830	1472546604148	1472546604262	a	65
45735	499934	The Senate should approve a 14-year-old treaty.	The senate should approve a 14-year-old treaty.	23798832	1472546604949	1472546605029	p	80
45735	499934	The Senate should approve a 14-year-old treaty.	The senate should approve a 14-year-old treaty.	23798977	1472546605108	1472546605204	p	80
45735	499934	The Senate should approve a 14-year-old treaty.	The senate should approve a 14-year-old treaty.	23798980	1472546606158	1472546606285	r	82
45735	499934	The Senate should approve a 14-year-old treaty.	The senate should approve a 14-year-old treaty.	23798983	1472546606896	1472546607003	o	79
45735	499934	The Senate should approve a 14-year-old treaty.	The senate should approve a 14-year-old treaty.	23798984	1472546607646	1472546607760	v	86
45735	499934	The Senate should approve a 14-year-old treaty.	The senate should approve a 14-year-old treaty.	23798985	1472546607932	1472546608059	e	69
45735	499934	The Senate should approve a 14-year-old treaty.	The senate should approve a 14-year-old treaty.	23799168	1472546609204	1472546609396	 	32
45735	499934	The Senate should approve a 14-year-old treaty.	The senate should approve a 14-year-old treaty.	23799169	1472546609867	1472546610024	a	65
45735	499934	The Senate should approve a 14-year-old treaty.	The senate should approve a 14-year-old treaty.	23799171	1472546610102	1472546610273	 	32
45735	499934	The Senate should approve a 14-year-old treaty.	The senate should approve a 14-year-old treaty.	23799175	1472546612138	1472546612267	1	49
45735	499934	The Senate should approve a 14-year-old treaty.	The senate should approve a 14-year-old treaty.	23799180	1472546612989	1472546613149	4	52
45735	499934	The Senate should approve a 14-year-old treaty.	The senate should approve a 14-year-old treaty.	23799414	1472546613212	1472546613405	 	32
45735	499934	The Senate should approve a 14-year-old treaty.	The senate should approve a 14-year-old treaty.	23799416	1472546614502	1472546614595	BKSP	8
45735	499934	The Senate should approve a 14-year-old treaty.	The senate should approve a 14-year-old treaty.	23799419	1472546615379	1472546615478	-	189
45735	499934	The Senate should approve a 14-year-old treaty.	The senate should approve a 14-year-old treaty.	23799422	1472546616670	1472546616784	y	89
45735	499934	The Senate should approve a 14-year-old treaty.	The senate should approve a 14-year-old treaty.	23799424	1472546619388	1472546619547	e	69
45735	499934	The Senate should approve a 14-year-old treaty.	The senate should approve a 14-year-old treaty.	23799426	1472546619594	1472546619717	a	65
45735	499934	The Senate should approve a 14-year-old treaty.	The senate should approve a 14-year-old treaty.	23799582	1472546620187	1472546620316	r	82
45735	499934	The Senate should approve a 14-year-old treaty.	The senate should approve a 14-year-old treaty.	23799586	1472546622057	1472546622153	-	189
45735	499934	The Senate should approve a 14-year-old treaty.	The senate should approve a 14-year-old treaty.	23799588	1472546622605	1472546622719	o	79
45735	499934	The Senate should approve a 14-year-old treaty.	The senate should approve a 14-year-old treaty.	23799592	1472546623109	1472546623219	l	76
45735	499934	The Senate should approve a 14-year-old treaty.	The senate should approve a 14-year-old treaty.	23799594	1472546623814	1472546624072	d	68
45735	499934	The Senate should approve a 14-year-old treaty.	The senate should approve a 14-year-old treaty.	23799717	1472546624021	1472546624229	 	32
45735	499934	The Senate should approve a 14-year-old treaty.	The senate should approve a 14-year-old treaty.	23799718	1472546625436	1472546625575	t	84
45735	499934	The Senate should approve a 14-year-old treaty.	The senate should approve a 14-year-old treaty.	23799719	1472546625965	1472546626077	r	82
45735	499934	The Senate should approve a 14-year-old treaty.	The senate should approve a 14-year-old treaty.	23799720	1472546626311	1472546626418	e	69
45735	499934	The Senate should approve a 14-year-old treaty.	The senate should approve a 14-year-old treaty.	23799721	1472546626747	1472546626859	a	65
45735	499934	The Senate should approve a 14-year-old treaty.	The senate should approve a 14-year-old treaty.	23799722	1472546627140	1472546627236	t	84
45735	499934	The Senate should approve a 14-year-old treaty.	The senate should approve a 14-year-old treaty.	23799816	1472546627816	1472546627974	y	89
45735	499934	The Senate should approve a 14-year-old treaty.	The senate should approve a 14-year-old treaty.	23799818	1472546629196	1472546629286	.	190
45735	499973	How did they get onto our floor?	How did they get onto our floor?	23800293	1472546636312	1472546637082	SHIFT	16
45735	499973	How did they get onto our floor?	How did they get onto our floor?	23800290	1472546636938	1472546637035	H	72
45735	499973	How did they get onto our floor?	How did they get onto our floor?	23800298	1472546637509	1472546637610	o	79
45735	499973	How did they get onto our floor?	How did they get onto our floor?	23800305	1472546637953	1472546638098	w	87
45735	499973	How did they get onto our floor?	How did they get onto our floor?	23800310	1472546638161	1472546638384	 	32
45735	499973	How did they get onto our floor?	How did they get onto our floor?	23800315	1472546638981	1472546639109	d	68
45735	499973	How did they get onto our floor?	How did they get onto our floor?	23800449	1472546639173	1472546639269	d	68
45735	499973	How did they get onto our floor?	How did they get onto our floor?	23800451	1472546639927	1472546640035	BKSP	8
45735	499973	How did they get onto our floor?	How did they get onto our floor?	23800454	1472546640474	1472546640577	i	73
45735	499973	How did they get onto our floor?	How did they get onto our floor?	23800458	1472546640623	1472546640782	d	68
45735	499973	How did they get onto our floor?	How did they get onto our floor?	23800462	1472546640813	1472546641022	 	32
45735	499973	How did they get onto our floor?	How did they get onto our floor?	23800466	1472546642212	1472546642357	t	84
45735	499973	How did they get onto our floor?	How did they get onto our floor?	23800592	1472546642467	1472546642593	h	72
45735	499973	How did they get onto our floor?	How did they get onto our floor?	23800596	1472546642858	1472546643030	e	69
45735	499973	How did they get onto our floor?	How did they get onto our floor?	23800600	1472546643093	1472546643216	y	89
45735	499973	How did they get onto our floor?	How did they get onto our floor?	23800603	1472546643232	1472546643420	 	32
45735	499973	How did they get onto our floor?	How did they get onto our floor?	23800604	1472546645317	1472546645441	g	71
45735	499973	How did they get onto our floor?	How did they get onto our floor?	23800742	1472546645661	1472546645791	e	69
45735	499973	How did they get onto our floor?	How did they get onto our floor?	23800744	1472546646150	1472546646305	t	84
45735	499973	How did they get onto our floor?	How did they get onto our floor?	23800747	1472546646290	1472546646479	 	32
45735	499973	How did they get onto our floor?	How did they get onto our floor?	23800748	1472546647437	1472546647566	o	79
45735	499973	How did they get onto our floor?	How did they get onto our floor?	23800749	1472546648037	1472546648151	n	78
45735	499973	How did they get onto our floor?	How did they get onto our floor?	23800860	1472546648573	1472546648746	t	84
45735	499973	How did they get onto our floor?	How did they get onto our floor?	23800863	1472546648808	1472546648965	o	79
45735	499973	How did they get onto our floor?	How did they get onto our floor?	23800871	1472546648949	1472546649136	 	32
45735	499973	How did they get onto our floor?	How did they get onto our floor?	23800877	1472546650658	1472546650766	o	79
45735	499973	How did they get onto our floor?	How did they get onto our floor?	23800885	1472546650844	1472546651013	u	85
45735	499973	How did they get onto our floor?	How did they get onto our floor?	23801006	1472546651310	1472546651542	r	82
45735	499973	How did they get onto our floor?	How did they get onto our floor?	23801010	1472546651495	1472546651734	 	32
45735	499973	How did they get onto our floor?	How did they get onto our floor?	23801015	1472546653193	1472546653332	f	70
45735	499973	How did they get onto our floor?	How did they get onto our floor?	23801021	1472546654022	1472546654117	l	76
45735	499973	How did they get onto our floor?	How did they get onto our floor?	23801024	1472546654429	1472546654511	o	79
45735	499973	How did they get onto our floor?	How did they get onto our floor?	23801135	1472546654590	1472546654671	o	79
45735	499973	How did they get onto our floor?	How did they get onto our floor?	23801136	1472546655092	1472546655249	r	82
45735	499973	How did they get onto our floor?	How did they get onto our floor?	23801137	1472546656724	1472546656930	SHIFT	16
45735	499973	How did they get onto our floor?	How did they get onto our floor?	23801138	1472546656864	1472546657008	?	191
45735	500000	This seems fine to me.	This seems fine to me.	23801493	1472546661581	1472546662212	SHIFT	16
45735	500000	This seems fine to me.	This seems fine to me.	23801495	1472546662131	1472546662244	T	84
45735	500000	This seems fine to me.	This seems fine to me.	23801497	1472546662415	1472546662543	h	72
45735	500000	This seems fine to me.	This seems fine to me.	23801500	1472546662825	1472546662944	i	73
45735	500000	This seems fine to me.	This seems fine to me.	23801506	1472546663240	1472546663397	e	69
45735	500000	This seems fine to me.	This seems fine to me.	23801512	1472546664087	1472546664200	BKSP	8
45735	500000	This seems fine to me.	This seems fine to me.	23801517	1472546664372	1472546664405	BKSP	8
45735	500000	This seems fine to me.	This seems fine to me.	23801523	1472546664578	1472546664818	s	83
45735	500000	This seems fine to me.	This seems fine to me.	23801737	1472546664779	1472546664988	 	32
45735	500000	This seems fine to me.	This seems fine to me.	23801743	1472546666430	1472546666513	BKSP	8
45735	500000	This seems fine to me.	This seems fine to me.	23801747	1472546666949	1472546667035	BKSP	8
45735	500000	This seems fine to me.	This seems fine to me.	23801753	1472546668243	1472546668382	i	73
45735	500000	This seems fine to me.	This seems fine to me.	23801758	1472546668538	1472546668791	s	83
45735	500000	This seems fine to me.	This seems fine to me.	23801762	1472546668776	1472546668915	 	32
45735	500000	This seems fine to me.	This seems fine to me.	23801765	1472546671096	1472546671217	s	83
45735	500000	This seems fine to me.	This seems fine to me.	23801767	1472546671326	1472546671450	e	69
45735	500000	This seems fine to me.	This seems fine to me.	23801862	1472546671498	1472546671593	e	69
45735	500000	This seems fine to me.	This seems fine to me.	23801864	1472546671998	1472546672171	m	77
45735	500000	This seems fine to me.	This seems fine to me.	23801866	1472546673394	1472546673565	s	83
45735	500000	This seems fine to me.	This seems fine to me.	23801869	1472546673612	1472546673835	 	32
45735	500000	This seems fine to me.	This seems fine to me.	23801872	1472546675042	1472546675166	f	70
45735	500000	This seems fine to me.	This seems fine to me.	23801998	1472546675448	1472546675545	i	73
45735	500000	This seems fine to me.	This seems fine to me.	23802001	1472546676029	1472546676126	n	78
45735	500000	This seems fine to me.	This seems fine to me.	23802005	1472546676516	1472546676750	e	69
45735	500000	This seems fine to me.	This seems fine to me.	23802007	1472546677062	1472546677253	 	32
45735	500000	This seems fine to me.	This seems fine to me.	23802010	1472546678053	1472546678198	t	84
45735	500000	This seems fine to me.	This seems fine to me.	23802095	1472546678433	1472546678542	o	79
45735	500000	This seems fine to me.	This seems fine to me.	23802097	1472546678963	1472546679076	 	32
45735	500000	This seems fine to me.	This seems fine to me.	23802099	1472546679232	1472546679343	m	77
45735	500000	This seems fine to me.	This seems fine to me.	23802101	1472546679780	1472546679909	e	69
45735	500000	This seems fine to me.	This seems fine to me.	23802107	1472546680363	1472546680460	.	190
45735	500018	I tried that to no avail.	I tried that to no avail.	23802490	1472546688170	1472546688871	SHIFT	16
45735	500018	I tried that to no avail.	I tried that to no avail.	23802493	1472546688812	1472546688941	I	73
45735	500018	I tried that to no avail.	I tried that to no avail.	23802496	1472546689237	1472546689428	 	32
45735	500018	I tried that to no avail.	I tried that to no avail.	23802500	1472546689899	1472546690040	t	84
45735	500018	I tried that to no avail.	I tried that to no avail.	23802502	1472546690165	1472546690306	r	82
45735	500018	I tried that to no avail.	I tried that to no avail.	23802504	1472546690965	1472546691121	a	65
45735	500018	I tried that to no avail.	I tried that to no avail.	23802733	1472546691624	1472546691796	i	73
45735	500018	I tried that to no avail.	I tried that to no avail.	23802736	1472546694602	1472546694668	BKSP	8
45735	500018	I tried that to no avail.	I tried that to no avail.	23802740	1472546694746	1472546694843	BKSP	8
45735	500018	I tried that to no avail.	I tried that to no avail.	23802743	1472546696252	1472546696381	i	73
45735	500018	I tried that to no avail.	I tried that to no avail.	23802747	1472546696786	1472546696915	e	69
45735	500018	I tried that to no avail.	I tried that to no avail.	23802750	1472546697305	1472546697479	d	68
45735	500018	I tried that to no avail.	I tried that to no avail.	23802752	1472546697495	1472546697717	 	32
45735	500018	I tried that to no avail.	I tried that to no avail.	23802852	1472546698643	1472546698804	t	84
45735	500018	I tried that to no avail.	I tried that to no avail.	23802855	1472546698867	1472546699007	h	72
45735	500018	I tried that to no avail.	I tried that to no avail.	23802859	1472546699554	1472546699713	a	65
45735	500018	I tried that to no avail.	I tried that to no avail.	23802862	1472546699916	1472546700102	t	84
45735	500018	I tried that to no avail.	I tried that to no avail.	23803012	1472546700056	1472546700276	 	32
45735	500018	I tried that to no avail.	I tried that to no avail.	23803014	1472546701106	1472546701327	t	84
45735	500018	I tried that to no avail.	I tried that to no avail.	23803015	1472546701405	1472546701516	o	79
45735	500018	I tried that to no avail.	I tried that to no avail.	23803017	1472546701531	1472546701688	 	32
45735	500018	I tried that to no avail.	I tried that to no avail.	23803018	1472546703397	1472546703507	n	78
45735	500018	I tried that to no avail.	I tried that to no avail.	23803020	1472546703601	1472546703762	o	79
45735	500018	I tried that to no avail.	I tried that to no avail.	23803119	1472546703841	1472546704027	 	32
45735	500018	I tried that to no avail.	I tried that to no avail.	23803121	1472546704968	1472546705081	a	65
45735	500018	I tried that to no avail.	I tried that to no avail.	23803123	1472546705709	1472546705831	v	86
45735	500018	I tried that to no avail.	I tried that to no avail.	23803125	1472546706050	1472546706190	a	65
45735	500018	I tried that to no avail.	I tried that to no avail.	23803129	1472546706754	1472546706850	i	73
45735	500018	I tried that to no avail.	I tried that to no avail.	23803236	1472546707224	1472546707302	l	76
45735	500018	I tried that to no avail.	I tried that to no avail.	23803239	1472546708743	1472546708834	.	190
45735	500045	The group is making a pilgrimage to the Catholic shrine of Fatima.	The group is making a pilgrimage to the Catholic shrine of Fatima.	23803544	1472546712786	1472546713261	SHIFT	16
45735	500045	The group is making a pilgrimage to the Catholic shrine of Fatima.	The group is making a pilgrimage to the Catholic shrine of Fatima.	23803548	1472546713194	1472546713292	T	84
45735	500045	The group is making a pilgrimage to the Catholic shrine of Fatima.	The group is making a pilgrimage to the Catholic shrine of Fatima.	23803552	1472546713433	1472546713557	h	72
45735	500045	The group is making a pilgrimage to the Catholic shrine of Fatima.	The group is making a pilgrimage to the Catholic shrine of Fatima.	23803556	1472546713713	1472546713948	e	69
45735	500045	The group is making a pilgrimage to the Catholic shrine of Fatima.	The group is making a pilgrimage to the Catholic shrine of Fatima.	23803560	1472546714088	1472546714308	 	32
45735	500045	The group is making a pilgrimage to the Catholic shrine of Fatima.	The group is making a pilgrimage to the Catholic shrine of Fatima.	23803562	1472546715816	1472546715956	g	71
45735	500045	The group is making a pilgrimage to the Catholic shrine of Fatima.	The group is making a pilgrimage to the Catholic shrine of Fatima.	23803667	1472546717333	1472546717479	r	82
45735	500045	The group is making a pilgrimage to the Catholic shrine of Fatima.	The group is making a pilgrimage to the Catholic shrine of Fatima.	23803671	1472546717744	1472546717841	o	79
45735	500045	The group is making a pilgrimage to the Catholic shrine of Fatima.	The group is making a pilgrimage to the Catholic shrine of Fatima.	23803673	1472546717966	1472546718082	u	85
45735	500045	The group is making a pilgrimage to the Catholic shrine of Fatima.	The group is making a pilgrimage to the Catholic shrine of Fatima.	23803678	1472546718472	1472546718597	p	80
45735	500045	The group is making a pilgrimage to the Catholic shrine of Fatima.	The group is making a pilgrimage to the Catholic shrine of Fatima.	23803682	1472546718691	1472546718892	 	32
45735	500045	The group is making a pilgrimage to the Catholic shrine of Fatima.	The group is making a pilgrimage to the Catholic shrine of Fatima.	23803841	1472546720208	1472546720347	i	73
45735	500045	The group is making a pilgrimage to the Catholic shrine of Fatima.	The group is making a pilgrimage to the Catholic shrine of Fatima.	23803842	1472546720519	1472546720756	s	83
45735	500045	The group is making a pilgrimage to the Catholic shrine of Fatima.	The group is making a pilgrimage to the Catholic shrine of Fatima.	23803843	1472546720787	1472546720945	 	32
45735	500045	The group is making a pilgrimage to the Catholic shrine of Fatima.	The group is making a pilgrimage to the Catholic shrine of Fatima.	23803844	1472546721966	1472546722073	m	77
45735	500045	The group is making a pilgrimage to the Catholic shrine of Fatima.	The group is making a pilgrimage to the Catholic shrine of Fatima.	23803845	1472546722495	1472546722622	a	65
45735	500045	The group is making a pilgrimage to the Catholic shrine of Fatima.	The group is making a pilgrimage to the Catholic shrine of Fatima.	23803942	1472546723499	1472546723606	k	75
45735	500045	The group is making a pilgrimage to the Catholic shrine of Fatima.	The group is making a pilgrimage to the Catholic shrine of Fatima.	23803945	1472546723762	1472546723859	i	73
45735	500045	The group is making a pilgrimage to the Catholic shrine of Fatima.	The group is making a pilgrimage to the Catholic shrine of Fatima.	23803948	1472546724375	1472546724498	n	78
45735	500045	The group is making a pilgrimage to the Catholic shrine of Fatima.	The group is making a pilgrimage to the Catholic shrine of Fatima.	23803951	1472546724716	1472546724902	g	71
45735	500045	The group is making a pilgrimage to the Catholic shrine of Fatima.	The group is making a pilgrimage to the Catholic shrine of Fatima.	23803954	1472546725042	1472546725219	 	32
45735	500045	The group is making a pilgrimage to the Catholic shrine of Fatima.	The group is making a pilgrimage to the Catholic shrine of Fatima.	23804170	1472546726301	1472546726430	a	65
45735	500045	The group is making a pilgrimage to the Catholic shrine of Fatima.	The group is making a pilgrimage to the Catholic shrine of Fatima.	23804175	1472546726555	1472546726743	 	32
45735	500045	The group is making a pilgrimage to the Catholic shrine of Fatima.	The group is making a pilgrimage to the Catholic shrine of Fatima.	23804179	1472546728311	1472546728423	p	80
45735	500045	The group is making a pilgrimage to the Catholic shrine of Fatima.	The group is making a pilgrimage to the Catholic shrine of Fatima.	23804182	1472546728657	1472546728749	i	73
45735	500045	The group is making a pilgrimage to the Catholic shrine of Fatima.	The group is making a pilgrimage to the Catholic shrine of Fatima.	23804184	1472546730333	1472546730431	l	76
45735	500045	The group is making a pilgrimage to the Catholic shrine of Fatima.	The group is making a pilgrimage to the Catholic shrine of Fatima.	23804519	1472546732096	1472546732239	g	71
45735	500045	The group is making a pilgrimage to the Catholic shrine of Fatima.	The group is making a pilgrimage to the Catholic shrine of Fatima.	23804520	1472546734324	1472546734479	r	82
45735	500045	The group is making a pilgrimage to the Catholic shrine of Fatima.	The group is making a pilgrimage to the Catholic shrine of Fatima.	23804521	1472546734651	1472546734794	i	73
45735	500045	The group is making a pilgrimage to the Catholic shrine of Fatima.	The group is making a pilgrimage to the Catholic shrine of Fatima.	23804522	1472546736817	1472546736939	m	77
45735	500045	The group is making a pilgrimage to the Catholic shrine of Fatima.	The group is making a pilgrimage to the Catholic shrine of Fatima.	23804523	1472546737236	1472546737348	a	65
45735	500045	The group is making a pilgrimage to the Catholic shrine of Fatima.	The group is making a pilgrimage to the Catholic shrine of Fatima.	23804672	1472546738100	1472546738197	g	71
45735	500045	The group is making a pilgrimage to the Catholic shrine of Fatima.	The group is making a pilgrimage to the Catholic shrine of Fatima.	23804676	1472546738400	1472546738515	e	69
45735	500045	The group is making a pilgrimage to the Catholic shrine of Fatima.	The group is making a pilgrimage to the Catholic shrine of Fatima.	23804681	1472546738671	1472546738845	 	32
45735	500045	The group is making a pilgrimage to the Catholic shrine of Fatima.	The group is making a pilgrimage to the Catholic shrine of Fatima.	23804686	1472546740035	1472546740210	t	84
45735	500045	The group is making a pilgrimage to the Catholic shrine of Fatima.	The group is making a pilgrimage to the Catholic shrine of Fatima.	23804688	1472546740273	1472546740382	o	79
45735	500045	The group is making a pilgrimage to the Catholic shrine of Fatima.	The group is making a pilgrimage to the Catholic shrine of Fatima.	23804765	1472546740414	1472546740585	 	32
45735	500045	The group is making a pilgrimage to the Catholic shrine of Fatima.	The group is making a pilgrimage to the Catholic shrine of Fatima.	23804768	1472546741776	1472546741890	t	84
45735	500045	The group is making a pilgrimage to the Catholic shrine of Fatima.	The group is making a pilgrimage to the Catholic shrine of Fatima.	23804771	1472546741952	1472546742079	h	72
45735	500045	The group is making a pilgrimage to the Catholic shrine of Fatima.	The group is making a pilgrimage to the Catholic shrine of Fatima.	23804774	1472546742204	1472546742346	e	69
45735	500045	The group is making a pilgrimage to the Catholic shrine of Fatima.	The group is making a pilgrimage to the Catholic shrine of Fatima.	23804776	1472546742424	1472546742577	 	32
45735	500045	The group is making a pilgrimage to the Catholic shrine of Fatima.	The group is making a pilgrimage to the Catholic shrine of Fatima.	23804943	1472546743691	1472546744084	SHIFT	16
45735	500045	The group is making a pilgrimage to the Catholic shrine of Fatima.	The group is making a pilgrimage to the Catholic shrine of Fatima.	23804945	1472546744019	1472546744115	C	67
45735	500045	The group is making a pilgrimage to the Catholic shrine of Fatima.	The group is making a pilgrimage to the Catholic shrine of Fatima.	23804947	1472546744427	1472546744555	a	65
45735	500045	The group is making a pilgrimage to the Catholic shrine of Fatima.	The group is making a pilgrimage to the Catholic shrine of Fatima.	23804950	1472546745354	1472546745465	t	84
45735	500045	The group is making a pilgrimage to the Catholic shrine of Fatima.	The group is making a pilgrimage to the Catholic shrine of Fatima.	23804953	1472546745543	1472546745640	h	72
45735	500045	The group is making a pilgrimage to the Catholic shrine of Fatima.	The group is making a pilgrimage to the Catholic shrine of Fatima.	23804957	1472546745827	1472546745908	o	79
45735	500045	The group is making a pilgrimage to the Catholic shrine of Fatima.	The group is making a pilgrimage to the Catholic shrine of Fatima.	23805279	1472546746566	1472546746665	l	76
45735	500045	The group is making a pilgrimage to the Catholic shrine of Fatima.	The group is making a pilgrimage to the Catholic shrine of Fatima.	23805282	1472546747636	1472546747732	i	73
45735	500045	The group is making a pilgrimage to the Catholic shrine of Fatima.	The group is making a pilgrimage to the Catholic shrine of Fatima.	23805286	1472546749158	1472546749280	c	67
45735	500045	The group is making a pilgrimage to the Catholic shrine of Fatima.	The group is making a pilgrimage to the Catholic shrine of Fatima.	23805289	1472546750347	1472546750519	 	32
45735	500045	The group is making a pilgrimage to the Catholic shrine of Fatima.	The group is making a pilgrimage to the Catholic shrine of Fatima.	23805294	1472546752541	1472546752679	s	83
45735	500045	The group is making a pilgrimage to the Catholic shrine of Fatima.	The group is making a pilgrimage to the Catholic shrine of Fatima.	23805440	1472546752790	1472546752898	h	72
45735	500045	The group is making a pilgrimage to the Catholic shrine of Fatima.	The group is making a pilgrimage to the Catholic shrine of Fatima.	23805444	1472546753509	1472546753653	r	82
45735	500045	The group is making a pilgrimage to the Catholic shrine of Fatima.	The group is making a pilgrimage to the Catholic shrine of Fatima.	23805448	1472546753669	1472546753781	i	73
45735	500045	The group is making a pilgrimage to the Catholic shrine of Fatima.	The group is making a pilgrimage to the Catholic shrine of Fatima.	23805452	1472546754283	1472546754381	n	78
45735	500045	The group is making a pilgrimage to the Catholic shrine of Fatima.	The group is making a pilgrimage to the Catholic shrine of Fatima.	23805456	1472546755682	1472546755804	e	69
45735	500045	The group is making a pilgrimage to the Catholic shrine of Fatima.	The group is making a pilgrimage to the Catholic shrine of Fatima.	23805646	1472546755898	1472546756131	 	32
45735	500045	The group is making a pilgrimage to the Catholic shrine of Fatima.	The group is making a pilgrimage to the Catholic shrine of Fatima.	23805649	1472546757259	1472546757373	o	79
45735	500045	The group is making a pilgrimage to the Catholic shrine of Fatima.	The group is making a pilgrimage to the Catholic shrine of Fatima.	23805650	1472546757716	1472546757860	f	70
45735	500045	The group is making a pilgrimage to the Catholic shrine of Fatima.	The group is making a pilgrimage to the Catholic shrine of Fatima.	23805651	1472546757891	1472546758099	 	32
45735	500045	The group is making a pilgrimage to the Catholic shrine of Fatima.	The group is making a pilgrimage to the Catholic shrine of Fatima.	23805652	1472546759103	1472546759417	SHIFT	16
45735	500045	The group is making a pilgrimage to the Catholic shrine of Fatima.	The group is making a pilgrimage to the Catholic shrine of Fatima.	23805809	1472546759352	1472546759495	F	70
45735	500045	The group is making a pilgrimage to the Catholic shrine of Fatima.	The group is making a pilgrimage to the Catholic shrine of Fatima.	23805810	1472546759744	1472546759887	a	65
45735	500045	The group is making a pilgrimage to the Catholic shrine of Fatima.	The group is making a pilgrimage to the Catholic shrine of Fatima.	23805811	1472546760546	1472546760671	t	84
45735	500045	The group is making a pilgrimage to the Catholic shrine of Fatima.	The group is making a pilgrimage to the Catholic shrine of Fatima.	23805812	1472546760889	1472546760982	i	73
45735	500045	The group is making a pilgrimage to the Catholic shrine of Fatima.	The group is making a pilgrimage to the Catholic shrine of Fatima.	23805815	1472546761278	1472546761357	m	77
45735	500045	The group is making a pilgrimage to the Catholic shrine of Fatima.	The group is making a pilgrimage to the Catholic shrine of Fatima.	23805818	1472546762861	1472546762987	a	65
45735	500045	The group is making a pilgrimage to the Catholic shrine of Fatima.	The group is making a pilgrimage to the Catholic shrine of Fatima.	23805858	1472546763708	1472546763776	.	190
45735	500090	Jacksonville's secondary is thin because of injuries.	Jacksonville's secondary is thin because of injuries.	23806288	1472546768979	1472546770940	SHIFT	16
45735	500090	Jacksonville's secondary is thin because of injuries.	Jacksonville's secondary is thin because of injuries.	23806285	1472546770733	1472546770893	J	74
45735	500090	Jacksonville's secondary is thin because of injuries.	Jacksonville's secondary is thin because of injuries.	23806291	1472546771316	1472546771445	a	65
45735	500090	Jacksonville's secondary is thin because of injuries.	Jacksonville's secondary is thin because of injuries.	23806295	1472546771962	1472546772126	c	67
45735	500090	Jacksonville's secondary is thin because of injuries.	Jacksonville's secondary is thin because of injuries.	23806297	1472546773742	1472546773932	k	75
45735	500090	Jacksonville's secondary is thin because of injuries.	Jacksonville's secondary is thin because of injuries.	23806299	1472546775423	1472546775545	s	83
45735	500090	Jacksonville's secondary is thin because of injuries.	Jacksonville's secondary is thin because of injuries.	23806433	1472546775920	1472546776014	o	79
45735	500090	Jacksonville's secondary is thin because of injuries.	Jacksonville's secondary is thin because of injuries.	23806436	1472546776563	1472546776672	n	78
45735	500090	Jacksonville's secondary is thin because of injuries.	Jacksonville's secondary is thin because of injuries.	23806439	1472546779117	1472546779244	v	86
45735	500090	Jacksonville's secondary is thin because of injuries.	Jacksonville's secondary is thin because of injuries.	23806443	1472546779462	1472546779555	i	73
45735	500090	Jacksonville's secondary is thin because of injuries.	Jacksonville's secondary is thin because of injuries.	23806447	1472546779836	1472546779899	l	76
45735	500090	Jacksonville's secondary is thin because of injuries.	Jacksonville's secondary is thin because of injuries.	23806586	1472546779995	1472546780073	l	76
45735	500090	Jacksonville's secondary is thin because of injuries.	Jacksonville's secondary is thin because of injuries.	23806587	1472546780684	1472546780813	e	69
45735	500090	Jacksonville's secondary is thin because of injuries.	Jacksonville's secondary is thin because of injuries.	23806589	1472546781532	1472546781624	'	222
45735	500090	Jacksonville's secondary is thin because of injuries.	Jacksonville's secondary is thin because of injuries.	23806592	1472546782468	1472546782564	c	67
45735	500090	Jacksonville's secondary is thin because of injuries.	Jacksonville's secondary is thin because of injuries.	23806595	1472546783191	1472546783297	BKSP	8
45735	500090	Jacksonville's secondary is thin because of injuries.	Jacksonville's secondary is thin because of injuries.	23806598	1472546784396	1472546784567	s	83
45735	500090	Jacksonville's secondary is thin because of injuries.	Jacksonville's secondary is thin because of injuries.	23806714	1472546784708	1472546784899	 	32
45735	500090	Jacksonville's secondary is thin because of injuries.	Jacksonville's secondary is thin because of injuries.	23806717	1472546786090	1472546786236	s	83
45735	500090	Jacksonville's secondary is thin because of injuries.	Jacksonville's secondary is thin because of injuries.	23806720	1472546786361	1472546786486	e	69
45735	500090	Jacksonville's secondary is thin because of injuries.	Jacksonville's secondary is thin because of injuries.	23806722	1472546786958	1472546787102	c	67
45735	500090	Jacksonville's secondary is thin because of injuries.	Jacksonville's secondary is thin because of injuries.	23806724	1472546787507	1472546787605	o	79
45735	500090	Jacksonville's secondary is thin because of injuries.	Jacksonville's secondary is thin because of injuries.	23806818	1472546787886	1472546787980	n	78
45735	500090	Jacksonville's secondary is thin because of injuries.	Jacksonville's secondary is thin because of injuries.	23806821	1472546788810	1472546788920	d	68
45735	500090	Jacksonville's secondary is thin because of injuries.	Jacksonville's secondary is thin because of injuries.	23806824	1472546789076	1472546789203	a	65
45735	500090	Jacksonville's secondary is thin because of injuries.	Jacksonville's secondary is thin because of injuries.	23806828	1472546789453	1472546789579	r	82
45735	500090	Jacksonville's secondary is thin because of injuries.	Jacksonville's secondary is thin because of injuries.	23806831	1472546789875	1472546789988	y	89
45735	500090	Jacksonville's secondary is thin because of injuries.	Jacksonville's secondary is thin because of injuries.	23806955	1472546790113	1472546790314	 	32
45735	500090	Jacksonville's secondary is thin because of injuries.	Jacksonville's secondary is thin because of injuries.	23806957	1472546792556	1472546792694	i	73
45735	500090	Jacksonville's secondary is thin because of injuries.	Jacksonville's secondary is thin because of injuries.	23806962	1472546792694	1472546792851	s	83
45735	500090	Jacksonville's secondary is thin because of injuries.	Jacksonville's secondary is thin because of injuries.	23806965	1472546792913	1472546793131	 	32
45735	500090	Jacksonville's secondary is thin because of injuries.	Jacksonville's secondary is thin because of injuries.	23806968	1472546794150	1472546794325	t	84
45735	500090	Jacksonville's secondary is thin because of injuries.	Jacksonville's secondary is thin because of injuries.	23807104	1472546794325	1472546794453	h	72
45735	500090	Jacksonville's secondary is thin because of injuries.	Jacksonville's secondary is thin because of injuries.	23807108	1472546794531	1472546794725	i	73
45735	500090	Jacksonville's secondary is thin because of injuries.	Jacksonville's secondary is thin because of injuries.	23807111	1472546794944	1472546795116	n	78
45735	500090	Jacksonville's secondary is thin because of injuries.	Jacksonville's secondary is thin because of injuries.	23807113	1472546795053	1472546795257	 	32
45735	500090	Jacksonville's secondary is thin because of injuries.	Jacksonville's secondary is thin because of injuries.	23807116	1472546796966	1472546797110	b	66
45735	500090	Jacksonville's secondary is thin because of injuries.	Jacksonville's secondary is thin because of injuries.	23807120	1472546798019	1472546798160	e	69
45735	500090	Jacksonville's secondary is thin because of injuries.	Jacksonville's secondary is thin because of injuries.	23807293	1472546799414	1472546799585	c	67
45735	500090	Jacksonville's secondary is thin because of injuries.	Jacksonville's secondary is thin because of injuries.	23807295	1472546800492	1472546800636	a	65
45735	500090	Jacksonville's secondary is thin because of injuries.	Jacksonville's secondary is thin because of injuries.	23807296	1472546801246	1472546801401	u	85
45735	500090	Jacksonville's secondary is thin because of injuries.	Jacksonville's secondary is thin because of injuries.	23807299	1472546802028	1472546802152	s	83
45735	500090	Jacksonville's secondary is thin because of injuries.	Jacksonville's secondary is thin because of injuries.	23807303	1472546802277	1472546802559	e	69
45735	500090	Jacksonville's secondary is thin because of injuries.	Jacksonville's secondary is thin because of injuries.	23807494	1472546802732	1472546802923	 	32
45735	500090	Jacksonville's secondary is thin because of injuries.	Jacksonville's secondary is thin because of injuries.	23807495	1472546803864	1472546804010	o	79
45735	500090	Jacksonville's secondary is thin because of injuries.	Jacksonville's secondary is thin because of injuries.	23807497	1472546805688	1472546805842	f	70
45735	500090	Jacksonville's secondary is thin because of injuries.	Jacksonville's secondary is thin because of injuries.	23807499	1472546805874	1472546806080	 	32
45735	500090	Jacksonville's secondary is thin because of injuries.	Jacksonville's secondary is thin because of injuries.	23807503	1472546807696	1472546807836	i	73
45735	500090	Jacksonville's secondary is thin because of injuries.	Jacksonville's secondary is thin because of injuries.	23807683	1472546807962	1472546808117	n	78
45735	500090	Jacksonville's secondary is thin because of injuries.	Jacksonville's secondary is thin because of injuries.	23807687	1472546808730	1472546808876	j	74
45735	500090	Jacksonville's secondary is thin because of injuries.	Jacksonville's secondary is thin because of injuries.	23807692	1472546809627	1472546809783	u	85
45735	500090	Jacksonville's secondary is thin because of injuries.	Jacksonville's secondary is thin because of injuries.	23807697	1472546810691	1472546810819	r	82
45735	500090	Jacksonville's secondary is thin because of injuries.	Jacksonville's secondary is thin because of injuries.	23807700	1472546812341	1472546812469	i	73
45735	500090	Jacksonville's secondary is thin because of injuries.	Jacksonville's secondary is thin because of injuries.	23807741	1472546812924	1472546813069	e	69
45735	500090	Jacksonville's secondary is thin because of injuries.	Jacksonville's secondary is thin because of injuries.	23807742	1472546813523	1472546813652	s	83
45735	500090	Jacksonville's secondary is thin because of injuries.	Jacksonville's secondary is thin because of injuries.	23807743	1472546813980	1472546814110	.	190
45735	500131	I'll keep you posted.	I'll keep you posted.	23807956	1472546817583	1472546818101	SHIFT	16
45735	500131	I'll keep you posted.	I'll keep you posted.	23807953	1472546817961	1472546818054	I	73
45735	500131	I'll keep you posted.	I'll keep you posted.	23807959	1472546818650	1472546818746	'	222
45735	500131	I'll keep you posted.	I'll keep you posted.	23807963	1472546819263	1472546819361	l	76
45735	500131	I'll keep you posted.	I'll keep you posted.	23807967	1472546819439	1472546819536	l	76
45735	500131	I'll keep you posted.	I'll keep you posted.	23807973	1472546819770	1472546819971	 	32
45735	500131	I'll keep you posted.	I'll keep you posted.	23808130	1472546822417	1472546822527	k	75
45735	500131	I'll keep you posted.	I'll keep you posted.	23808132	1472546822824	1472546822937	e	69
45735	500131	I'll keep you posted.	I'll keep you posted.	23808134	1472546823015	1472546823096	e	69
45735	500131	I'll keep you posted.	I'll keep you posted.	23808136	1472546823517	1472546823643	p	80
45735	500131	I'll keep you posted.	I'll keep you posted.	23808138	1472546824224	1472546824415	 	32
45735	500131	I'll keep you posted.	I'll keep you posted.	23808254	1472546825182	1472546825356	y	89
45735	500131	I'll keep you posted.	I'll keep you posted.	23808256	1472546825387	1472546825511	o	79
45735	500131	I'll keep you posted.	I'll keep you posted.	23808258	1472546825620	1472546825759	u	85
45735	500131	I'll keep you posted.	I'll keep you posted.	23808261	1472546825790	1472546825996	 	32
45735	500131	I'll keep you posted.	I'll keep you posted.	23808266	1472546826969	1472546827062	p	80
45735	500131	I'll keep you posted.	I'll keep you posted.	23808343	1472546827141	1472546827270	o	79
45735	500131	I'll keep you posted.	I'll keep you posted.	23808344	1472546827989	1472546828133	s	83
45735	500131	I'll keep you posted.	I'll keep you posted.	23808346	1472546828492	1472546828604	t	84
45735	500131	I'll keep you posted.	I'll keep you posted.	23808352	1472546828807	1472546828920	e	69
45735	500131	I'll keep you posted.	I'll keep you posted.	23808356	1472546829156	1472546829254	d	68
45735	500131	I'll keep you posted.	I'll keep you posted.	23808399	1472546829864	1472546829946	.	190
45735	500144	I met my neighbors in the park across the street tonight.	I met my neighbors in the park across the street tonight.	23808624	1472546833743	1472546834889	SHIFT	16
45735	500144	I met my neighbors in the park across the street tonight.	I met my neighbors in the park across the street tonight.	23808629	1472546834825	1472546834904	I	73
45735	500144	I met my neighbors in the park across the street tonight.	I met my neighbors in the park across the street tonight.	23808633	1472546835169	1472546835324	 	32
45735	500144	I met my neighbors in the park across the street tonight.	I met my neighbors in the park across the street tonight.	23808638	1472546835433	1472546835559	m	77
45735	500144	I met my neighbors in the park across the street tonight.	I met my neighbors in the park across the street tonight.	23808640	1472546835965	1472546836093	e	69
45735	500144	I met my neighbors in the park across the street tonight.	I met my neighbors in the park across the street tonight.	23808643	1472546836483	1472546836657	t	84
45735	500144	I met my neighbors in the park across the street tonight.	I met my neighbors in the park across the street tonight.	23808774	1472546836672	1472546836863	 	32
45735	500144	I met my neighbors in the park across the street tonight.	I met my neighbors in the park across the street tonight.	23808777	1472546837946	1472546838076	m	77
45735	500144	I met my neighbors in the park across the street tonight.	I met my neighbors in the park across the street tonight.	23808779	1472546838547	1472546838795	y	89
45735	500144	I met my neighbors in the park across the street tonight.	I met my neighbors in the park across the street tonight.	23808780	1472546838753	1472546838939	 	32
45735	500144	I met my neighbors in the park across the street tonight.	I met my neighbors in the park across the street tonight.	23808781	1472546839959	1472546840086	n	78
45735	500144	I met my neighbors in the park across the street tonight.	I met my neighbors in the park across the street tonight.	23808939	1472546841039	1472546841200	e	69
45735	500144	I met my neighbors in the park across the street tonight.	I met my neighbors in the park across the street tonight.	23808941	1472546841340	1472546841483	i	73
45735	500144	I met my neighbors in the park across the street tonight.	I met my neighbors in the park across the street tonight.	23808945	1472546842189	1472546842317	g	71
45735	500144	I met my neighbors in the park across the street tonight.	I met my neighbors in the park across the street tonight.	23808949	1472546842691	1472546842817	h	72
45735	500144	I met my neighbors in the park across the street tonight.	I met my neighbors in the park across the street tonight.	23808953	1472546844697	1472546844888	b	66
45735	500144	I met my neighbors in the park across the street tonight.	I met my neighbors in the park across the street tonight.	23809123	1472546844983	1472546845125	o	79
45735	500144	I met my neighbors in the park across the street tonight.	I met my neighbors in the park across the street tonight.	23809127	1472546846110	1472546846242	r	82
45735	500144	I met my neighbors in the park across the street tonight.	I met my neighbors in the park across the street tonight.	23809132	1472546847636	1472546847806	s	83
45735	500144	I met my neighbors in the park across the street tonight.	I met my neighbors in the park across the street tonight.	23809136	1472546847853	1472546848070	 	32
45735	500144	I met my neighbors in the park across the street tonight.	I met my neighbors in the park across the street tonight.	23809143	1472546849104	1472546849242	i	73
45735	500144	I met my neighbors in the park across the street tonight.	I met my neighbors in the park across the street tonight.	23809245	1472546849399	1472546849542	n	78
45735	500144	I met my neighbors in the park across the street tonight.	I met my neighbors in the park across the street tonight.	23809248	1472546849713	1472546849935	 	32
45735	500144	I met my neighbors in the park across the street tonight.	I met my neighbors in the park across the street tonight.	23809252	1472546851002	1472546851172	t	84
45735	500144	I met my neighbors in the park across the street tonight.	I met my neighbors in the park across the street tonight.	23809255	1472546851172	1472546851300	h	72
45735	500144	I met my neighbors in the park across the street tonight.	I met my neighbors in the park across the street tonight.	23809259	1472546851612	1472546851839	e	69
45735	500144	I met my neighbors in the park across the street tonight.	I met my neighbors in the park across the street tonight.	23809384	1472546851789	1472546851996	 	32
45735	500144	I met my neighbors in the park across the street tonight.	I met my neighbors in the park across the street tonight.	23809385	1472546852840	1472546852936	p	80
45735	500144	I met my neighbors in the park across the street tonight.	I met my neighbors in the park across the street tonight.	23809388	1472546853279	1472546853410	a	65
45735	500144	I met my neighbors in the park across the street tonight.	I met my neighbors in the park across the street tonight.	23809392	1472546853690	1472546853851	r	82
45735	500144	I met my neighbors in the park across the street tonight.	I met my neighbors in the park across the street tonight.	23809397	1472546854711	1472546854825	k	75
45735	500144	I met my neighbors in the park across the street tonight.	I met my neighbors in the park across the street tonight.	23809400	1472546855562	1472546855762	 	32
45735	500144	I met my neighbors in the park across the street tonight.	I met my neighbors in the park across the street tonight.	23809493	1472546856296	1472546856425	a	65
45735	500144	I met my neighbors in the park across the street tonight.	I met my neighbors in the park across the street tonight.	23809497	1472546857084	1472546857193	c	67
45735	500144	I met my neighbors in the park across the street tonight.	I met my neighbors in the park across the street tonight.	23809499	1472546857727	1472546857881	r	82
45735	500144	I met my neighbors in the park across the street tonight.	I met my neighbors in the park across the street tonight.	23809502	1472546858084	1472546858209	o	79
45735	500144	I met my neighbors in the park across the street tonight.	I met my neighbors in the park across the street tonight.	23809506	1472546858272	1472546858338	o	79
45735	500144	I met my neighbors in the park across the street tonight.	I met my neighbors in the park across the street tonight.	23809781	1472546858964	1472546859076	BKSP	8
45735	500144	I met my neighbors in the park across the street tonight.	I met my neighbors in the park across the street tonight.	23809783	1472546859671	1472546859792	s	83
45735	500144	I met my neighbors in the park across the street tonight.	I met my neighbors in the park across the street tonight.	23809784	1472546859855	1472546859967	s	83
45735	500144	I met my neighbors in the park across the street tonight.	I met my neighbors in the park across the street tonight.	23809786	1472546860092	1472546860265	 	32
45735	500144	I met my neighbors in the park across the street tonight.	I met my neighbors in the park across the street tonight.	23809787	1472546860421	1472546861131	 	32
45735	500144	I met my neighbors in the park across the street tonight.	I met my neighbors in the park across the street tonight.	23809788	1472546863660	1472546863721	BKSP	8
45735	500144	I met my neighbors in the park across the street tonight.	I met my neighbors in the park across the street tonight.	23809789	1472546863799	1472546863863	BKSP	8
45735	500144	I met my neighbors in the park across the street tonight.	I met my neighbors in the park across the street tonight.	23809790	1472546863941	1472546864021	BKSP	8
45735	500144	I met my neighbors in the park across the street tonight.	I met my neighbors in the park across the street tonight.	23809792	1472546864083	1472546864162	BKSP	8
45735	500144	I met my neighbors in the park across the street tonight.	I met my neighbors in the park across the street tonight.	23809795	1472546864271	1472546864353	BKSP	8
45735	500144	I met my neighbors in the park across the street tonight.	I met my neighbors in the park across the street tonight.	23809797	1472546864431	1472546864497	BKSP	8
45735	500144	I met my neighbors in the park across the street tonight.	I met my neighbors in the park across the street tonight.	23809799	1472546864590	1472546864655	BKSP	8
45735	500144	I met my neighbors in the park across the street tonight.	I met my neighbors in the park across the street tonight.	23809801	1472546865593	1472546865701	 	32
45735	500144	I met my neighbors in the park across the street tonight.	I met my neighbors in the park across the street tonight.	23809891	1472546866312	1472546866473	t	84
45735	500144	I met my neighbors in the park across the street tonight.	I met my neighbors in the park across the street tonight.	23809893	1472546866473	1472546866601	h	72
45735	500144	I met my neighbors in the park across the street tonight.	I met my neighbors in the park across the street tonight.	23809896	1472546866804	1472546867109	e	69
45735	500144	I met my neighbors in the park across the street tonight.	I met my neighbors in the park across the street tonight.	23809900	1472546866964	1472546867124	 	32
45735	500144	I met my neighbors in the park across the street tonight.	I met my neighbors in the park across the street tonight.	23809903	1472546868564	1472546868684	s	83
45735	500144	I met my neighbors in the park across the street tonight.	I met my neighbors in the park across the street tonight.	23809963	1472546869107	1472546869219	t	84
45735	500144	I met my neighbors in the park across the street tonight.	I met my neighbors in the park across the street tonight.	23809965	1472546869344	1472546869452	r	82
45735	500144	I met my neighbors in the park across the street tonight.	I met my neighbors in the park across the street tonight.	23809967	1472546869748	1472546869845	e	69
45735	500144	I met my neighbors in the park across the street tonight.	I met my neighbors in the park across the street tonight.	23809968	1472546869923	1472546869987	e	69
45735	500144	I met my neighbors in the park across the street tonight.	I met my neighbors in the park across the street tonight.	23809969	1472546870471	1472546870584	t	84
45735	500144	I met my neighbors in the park across the street tonight.	I met my neighbors in the park across the street tonight.	23810079	1472546871055	1472546871214	 	32
45735	500144	I met my neighbors in the park across the street tonight.	I met my neighbors in the park across the street tonight.	23810081	1472546872328	1472546872497	t	84
45735	500144	I met my neighbors in the park across the street tonight.	I met my neighbors in the park across the street tonight.	23810085	1472546873093	1472546873201	o	79
45735	500144	I met my neighbors in the park across the street tonight.	I met my neighbors in the park across the street tonight.	23810088	1472546873622	1472546873735	n	78
45735	500144	I met my neighbors in the park across the street tonight.	I met my neighbors in the park across the street tonight.	23810090	1472546874062	1472546874145	i	73
45735	500144	I met my neighbors in the park across the street tonight.	I met my neighbors in the park across the street tonight.	23810252	1472546875100	1472546875226	g	71
45735	500144	I met my neighbors in the park across the street tonight.	I met my neighbors in the park across the street tonight.	23810254	1472546875350	1472546875475	h	72
45735	500144	I met my neighbors in the park across the street tonight.	I met my neighbors in the park across the street tonight.	23810256	1472546875693	1472546875831	t	84
45735	500144	I met my neighbors in the park across the street tonight.	I met my neighbors in the park across the street tonight.	23810258	1472546877494	1472546877562	.	190
45735	500184	Make sure they are current.	Make sure they are current.	23810570	1472546882641	1472546886245	SHIFT	16
45735	500184	Make sure they are current.	Make sure they are current.	23810574	1472546886185	1472546886292	M	77
45735	500184	Make sure they are current.	Make sure they are current.	23810579	1472546886826	1472546886949	a	65
45735	500184	Make sure they are current.	Make sure they are current.	23810583	1472546887183	1472546887278	k	75
45735	500184	Make sure they are current.	Make sure they are current.	23810590	1472546887622	1472546887749	e	69
45735	500184	Make sure they are current.	Make sure they are current.	23810596	1472546887858	1472546888013	 	32
45735	500184	Make sure they are current.	Make sure they are current.	23810656	1472546888734	1472546888857	s	83
45735	500184	Make sure they are current.	Make sure they are current.	23810658	1472546889517	1472546889641	u	85
45735	500184	Make sure they are current.	Make sure they are current.	23810663	1472546889922	1472546890049	r	82
45735	500184	Make sure they are current.	Make sure they are current.	23810665	1472546890080	1472546890207	e	69
45735	500184	Make sure they are current.	Make sure they are current.	23810667	1472546890347	1472546890521	 	32
45735	500184	Make sure they are current.	Make sure they are current.	23810776	1472546892184	1472546892339	t	84
45735	500184	Make sure they are current.	Make sure they are current.	23810782	1472546892697	1472546892808	h	72
45735	500184	Make sure they are current.	Make sure they are current.	23810789	1472546893027	1472546893156	e	69
45735	500184	Make sure they are current.	Make sure they are current.	23810796	1472546893229	1472546893340	y	89
45735	500184	Make sure they are current.	Make sure they are current.	23810800	1472546893387	1472546893562	 	32
45735	500184	Make sure they are current.	Make sure they are current.	23810927	1472546894535	1472546894673	a	65
45735	500184	Make sure they are current.	Make sure they are current.	23810929	1472546895016	1472546895125	r	82
45735	500184	Make sure they are current.	Make sure they are current.	23810931	1472546895188	1472546895315	e	69
45735	500184	Make sure they are current.	Make sure they are current.	23810933	1472546895424	1472546895596	 	32
45735	500184	Make sure they are current.	Make sure they are current.	23810935	1472546896880	1472546897008	c	67
45735	500184	Make sure they are current.	Make sure they are current.	23811020	1472546897822	1472546897965	u	85
45735	500184	Make sure they are current.	Make sure they are current.	23811021	1472546898686	1472546898799	r	82
45735	500184	Make sure they are current.	Make sure they are current.	23811022	1472546898861	1472546898959	r	82
45735	500184	Make sure they are current.	Make sure they are current.	23811023	1472546899334	1472546899426	e	69
45735	500184	Make sure they are current.	Make sure they are current.	23811024	1472546899894	1472546900007	n	78
45735	500184	Make sure they are current.	Make sure they are current.	23811114	1472546900398	1472546900525	t	84
45735	500184	Make sure they are current.	Make sure they are current.	23811116	1472546901895	1472546901993	.	190
45735	500202	Please forward the backup today if possible so we can review.	Please forward the backup today if possible so we can review.	23811450	1472546910683	1472546911520	SHIFT	16
45735	500202	Please forward the backup today if possible so we can review.	Please forward the backup today if possible so we can review.	23811452	1472546911453	1472546911567	P	80
45735	500202	Please forward the backup today if possible so we can review.	Please forward the backup today if possible so we can review.	23811454	1472546912084	1472546912191	l	76
45735	500202	Please forward the backup today if possible so we can review.	Please forward the backup today if possible so we can review.	23811456	1472546912725	1472546912832	e	69
45735	500202	Please forward the backup today if possible so we can review.	Please forward the backup today if possible so we can review.	23811457	1472546913113	1472546913241	a	65
45735	500202	Please forward the backup today if possible so we can review.	Please forward the backup today if possible so we can review.	23811458	1472546913599	1472546913754	s	83
45735	500202	Please forward the backup today if possible so we can review.	Please forward the backup today if possible so we can review.	23811559	1472546913864	1472546914021	e	69
45735	500202	Please forward the backup today if possible so we can review.	Please forward the backup today if possible so we can review.	23811560	1472546914115	1472546914287	 	32
45735	500202	Please forward the backup today if possible so we can review.	Please forward the backup today if possible so we can review.	23811561	1472546915980	1472546916137	f	70
45735	500202	Please forward the backup today if possible so we can review.	Please forward the backup today if possible so we can review.	23811562	1472546916278	1472546916390	o	79
45735	500202	Please forward the backup today if possible so we can review.	Please forward the backup today if possible so we can review.	23811563	1472546918348	1472546918489	r	82
45735	500202	Please forward the backup today if possible so we can review.	Please forward the backup today if possible so we can review.	23811693	1472546920431	1472546920557	w	87
45735	500202	Please forward the backup today if possible so we can review.	Please forward the backup today if possible so we can review.	23811695	1472546920728	1472546920855	a	65
45735	500202	Please forward the backup today if possible so we can review.	Please forward the backup today if possible so we can review.	23811698	1472546922472	1472546922661	r	82
45735	500202	Please forward the backup today if possible so we can review.	Please forward the backup today if possible so we can review.	23811701	1472546923350	1472546923582	d	68
45735	500202	Please forward the backup today if possible so we can review.	Please forward the backup today if possible so we can review.	23811704	1472546923614	1472546923802	 	32
45735	500202	Please forward the backup today if possible so we can review.	Please forward the backup today if possible so we can review.	23811858	1472546924807	1472546924979	t	84
45735	500202	Please forward the backup today if possible so we can review.	Please forward the backup today if possible so we can review.	23811861	1472546925135	1472546925311	h	72
45735	500202	Please forward the backup today if possible so we can review.	Please forward the backup today if possible so we can review.	23811864	1472546925639	1472546925909	e	69
45735	500202	Please forward the backup today if possible so we can review.	Please forward the backup today if possible so we can review.	23811867	1472546925826	1472546926018	 	32
45735	500202	Please forward the backup today if possible so we can review.	Please forward the backup today if possible so we can review.	23811870	1472546929545	1472546929673	b	66
45735	500202	Please forward the backup today if possible so we can review.	Please forward the backup today if possible so we can review.	23812018	1472546929861	1472546929989	a	65
45735	500202	Please forward the backup today if possible so we can review.	Please forward the backup today if possible so we can review.	23812021	1472546930460	1472546930629	c	67
45735	500202	Please forward the backup today if possible so we can review.	Please forward the backup today if possible so we can review.	23812024	1472546930753	1472546930927	k	75
45735	500202	Please forward the backup today if possible so we can review.	Please forward the backup today if possible so we can review.	23812027	1472546933419	1472546933626	u	85
45735	500202	Please forward the backup today if possible so we can review.	Please forward the backup today if possible so we can review.	23812180	1472546933611	1472546933864	p	80
45735	500202	Please forward the backup today if possible so we can review.	Please forward the backup today if possible so we can review.	23812182	1472546934616	1472546934833	 	32
45735	500202	Please forward the backup today if possible so we can review.	Please forward the backup today if possible so we can review.	23812184	1472546936102	1472546936280	t	84
45735	500202	Please forward the backup today if possible so we can review.	Please forward the backup today if possible so we can review.	23812188	1472546936452	1472546936502	i	73
45735	500202	Please forward the backup today if possible so we can review.	Please forward the backup today if possible so we can review.	23812189	1472546936954	1472546937081	BKSP	8
45735	500202	Please forward the backup today if possible so we can review.	Please forward the backup today if possible so we can review.	23812192	1472546937253	1472546937395	o	79
45735	500202	Please forward the backup today if possible so we can review.	Please forward the backup today if possible so we can review.	23812195	1472546938210	1472546938385	d	68
45735	500202	Please forward the backup today if possible so we can review.	Please forward the backup today if possible so we can review.	23812306	1472546938464	1472546938637	a	65
45735	500202	Please forward the backup today if possible so we can review.	Please forward the backup today if possible so we can review.	23812307	1472546938917	1472546939135	y	89
45735	500202	Please forward the backup today if possible so we can review.	Please forward the backup today if possible so we can review.	23812308	1472546939078	1472546939268	 	32
45735	500202	Please forward the backup today if possible so we can review.	Please forward the backup today if possible so we can review.	23812309	1472546940320	1472546940462	i	73
45735	500202	Please forward the backup today if possible so we can review.	Please forward the backup today if possible so we can review.	23812310	1472546940917	1472546941141	f	70
45735	500202	Please forward the backup today if possible so we can review.	Please forward the backup today if possible so we can review.	23812392	1472546941172	1472546941391	 	32
45735	500202	Please forward the backup today if possible so we can review.	Please forward the backup today if possible so we can review.	23812394	1472546942472	1472546942598	p	80
45735	500202	Please forward the backup today if possible so we can review.	Please forward the backup today if possible so we can review.	23812397	1472546942847	1472546942989	o	79
45735	500202	Please forward the backup today if possible so we can review.	Please forward the backup today if possible so we can review.	23812400	1472546943630	1472546943740	s	83
45735	500202	Please forward the backup today if possible so we can review.	Please forward the backup today if possible so we can review.	23812401	1472546943787	1472546943897	s	83
45735	500202	Please forward the backup today if possible so we can review.	Please forward the backup today if possible so we can review.	23812483	1472546944053	1472546944195	i	73
45735	500202	Please forward the backup today if possible so we can review.	Please forward the backup today if possible so we can review.	23812486	1472546944667	1472546944797	b	66
45735	500202	Please forward the backup today if possible so we can review.	Please forward the backup today if possible so we can review.	23812491	1472546945298	1472546945439	l	76
45735	500202	Please forward the backup today if possible so we can review.	Please forward the backup today if possible so we can review.	23812495	1472546945797	1472546945969	e	69
45735	500202	Please forward the backup today if possible so we can review.	Please forward the backup today if possible so we can review.	23812498	1472546946876	1472546947061	 	32
45735	500202	Please forward the backup today if possible so we can review.	Please forward the backup today if possible so we can review.	23812590	1472546948328	1472546948502	s	83
45735	500202	Please forward the backup today if possible so we can review.	Please forward the backup today if possible so we can review.	23812593	1472546948549	1472546948735	o	79
45735	500202	Please forward the backup today if possible so we can review.	Please forward the backup today if possible so we can review.	23812595	1472546948672	1472546948860	 	32
45735	500202	Please forward the backup today if possible so we can review.	Please forward the backup today if possible so we can review.	23812599	1472546950097	1472546950410	w	87
45735	500202	Please forward the backup today if possible so we can review.	Please forward the backup today if possible so we can review.	23812603	1472546950685	1472546950868	e	69
45735	500202	Please forward the backup today if possible so we can review.	Please forward the backup today if possible so we can review.	23812857	1472546950978	1472546951277	v	32
45735	500202	Please forward the backup today if possible so we can review.	Please forward the backup today if possible so we can review.	23812859	1472546952044	1472546952171	BKSP	8
45735	500202	Please forward the backup today if possible so we can review.	Please forward the backup today if possible so we can review.	23812864	1472546952265	1472546952467	 	32
45735	500202	Please forward the backup today if possible so we can review.	Please forward the backup today if possible so we can review.	23812869	1472546955102	1472546955215	BKSP	8
45735	500202	Please forward the backup today if possible so we can review.	Please forward the backup today if possible so we can review.	23812873	1472546956747	1472546956917	c	67
45735	500202	Please forward the backup today if possible so we can review.	Please forward the backup today if possible so we can review.	23812878	1472546956964	1472546957103	a	65
45735	500202	Please forward the backup today if possible so we can review.	Please forward the backup today if possible so we can review.	23812978	1472546957167	1472546957357	n	78
45735	500202	Please forward the backup today if possible so we can review.	Please forward the backup today if possible so we can review.	23812979	1472546957373	1472546957565	 	32
45735	500202	Please forward the backup today if possible so we can review.	Please forward the backup today if possible so we can review.	23812980	1472546958975	1472546959103	r	82
45735	500202	Please forward the backup today if possible so we can review.	Please forward the backup today if possible so we can review.	23812981	1472546959353	1472546959478	e	69
45735	500202	Please forward the backup today if possible so we can review.	Please forward the backup today if possible so we can review.	23812982	1472546961265	1472546961419	v	86
45735	500202	Please forward the backup today if possible so we can review.	Please forward the backup today if possible so we can review.	23813032	1472546961685	1472546961828	i	73
45735	500202	Please forward the backup today if possible so we can review.	Please forward the backup today if possible so we can review.	23813033	1472546962202	1472546962344	e	69
45735	500202	Please forward the backup today if possible so we can review.	Please forward the backup today if possible so we can review.	23813034	1472546962562	1472546962719	w	87
45735	500202	Please forward the backup today if possible so we can review.	Please forward the backup today if possible so we can review.	23813035	1472546963360	1472546963487	.	190
45735	500288	Are you back in town?	Are you back in town?	23815619	1472547029782	1472547030503	SHIFT	16
45735	500288	Are you back in town?	Are you back in town?	23815624	1472547030392	1472547030598	A	65
45735	500288	Are you back in town?	Are you back in town?	23815629	1472547030926	1472547031036	r	82
45735	500288	Are you back in town?	Are you back in town?	23815635	1472547031130	1472547031274	e	69
45735	500288	Are you back in town?	Are you back in town?	23815762	1472547031586	1472547031743	v	32
45735	500288	Are you back in town?	Are you back in town?	23815764	1472547033638	1472547033720	BKSP	8
45735	500288	Are you back in town?	Are you back in town?	23815765	1472547034300	1472547034456	y	89
45735	500288	Are you back in town?	Are you back in town?	23815767	1472547034549	1472547034676	o	79
45735	500288	Are you back in town?	Are you back in town?	23815768	1472547034801	1472547034956	u	85
45735	500288	Are you back in town?	Are you back in town?	23815769	1472547035003	1472547035205	 	32
45735	500288	Are you back in town?	Are you back in town?	23815770	1472547036050	1472547036206	b	66
45735	500288	Are you back in town?	Are you back in town?	23815819	1472547036566	1472547036709	a	65
45735	500288	Are you back in town?	Are you back in town?	23815822	1472547037147	1472547037292	c	67
45735	500288	Are you back in town?	Are you back in town?	23815825	1472547037495	1472547037649	k	75
45735	500288	Are you back in town?	Are you back in town?	23815828	1472547037664	1472547037854	 	32
45735	500288	Are you back in town?	Are you back in town?	23815831	1472547038150	1472547038290	i	73
45735	500288	Are you back in town?	Are you back in town?	23815909	1472547038447	1472547038591	n	78
45735	500288	Are you back in town?	Are you back in town?	23815911	1472547038638	1472547038828	 	32
45735	500288	Are you back in town?	Are you back in town?	23815913	1472547039597	1472547039756	t	84
45735	500288	Are you back in town?	Are you back in town?	23815915	1472547039834	1472547040006	o	79
45735	500288	Are you back in town?	Are you back in town?	23815916	1472547040757	1472547040885	w	87
45735	500288	Are you back in town?	Are you back in town?	23815948	1472547040978	1472547041194	n	78
45735	500288	Are you back in town?	Are you back in town?	23815950	1472547041728	1472547041931	SHIFT	16
45735	500288	Are you back in town?	Are you back in town?	23815953	1472547041884	1472547042040	?	191
45735	500301	I will add this to the folder and let you know when we get into it.	I will add this to  the folder and let you know when we get into it.	23816136	1472547046247	1472547046668	SHIFT	16
45735	500301	I will add this to the folder and let you know when we get into it.	I will add this to  the folder and let you know when we get into it.	23816138	1472547046559	1472547046746	I	73
45735	500301	I will add this to the folder and let you know when we get into it.	I will add this to  the folder and let you know when we get into it.	23816140	1472547046902	1472547047136	 	32
45735	500301	I will add this to the folder and let you know when we get into it.	I will add this to  the folder and let you know when we get into it.	23816142	1472547047307	1472547047481	w	87
45735	500301	I will add this to the folder and let you know when we get into it.	I will add this to  the folder and let you know when we get into it.	23816144	1472547047699	1472547047825	i	73
45735	500301	I will add this to the folder and let you know when we get into it.	I will add this to  the folder and let you know when we get into it.	23816146	1472547048686	1472547048816	l	76
45735	500301	I will add this to the folder and let you know when we get into it.	I will add this to  the folder and let you know when we get into it.	23816215	1472547048879	1472547048977	l	76
45735	500301	I will add this to the folder and let you know when we get into it.	I will add this to  the folder and let you know when we get into it.	23816217	1472547049242	1472547049429	 	32
45735	500301	I will add this to the folder and let you know when we get into it.	I will add this to  the folder and let you know when we get into it.	23816220	1472547050119	1472547050273	a	65
45735	500301	I will add this to the folder and let you know when we get into it.	I will add this to  the folder and let you know when we get into it.	23816222	1472547050791	1472547050901	d	68
45735	500301	I will add this to the folder and let you know when we get into it.	I will add this to  the folder and let you know when we get into it.	23816226	1472547050979	1472547051077	d	68
45735	500301	I will add this to the folder and let you know when we get into it.	I will add this to  the folder and let you know when we get into it.	23816344	1472547051327	1472547051498	 	32
45735	500301	I will add this to the folder and let you know when we get into it.	I will add this to  the folder and let you know when we get into it.	23816346	1472547052295	1472547052488	t	84
45735	500301	I will add this to the folder and let you know when we get into it.	I will add this to  the folder and let you know when we get into it.	23816348	1472547052535	1472547052736	h	72
45735	500301	I will add this to the folder and let you know when we get into it.	I will add this to  the folder and let you know when we get into it.	23816352	1472547052892	1472547053017	i	73
45735	500301	I will add this to the folder and let you know when we get into it.	I will add this to  the folder and let you know when we get into it.	23816354	1472547053551	1472547053754	s	83
45735	500301	I will add this to the folder and let you know when we get into it.	I will add this to  the folder and let you know when we get into it.	23816432	1472547053801	1472547053987	 	32
45735	500301	I will add this to the folder and let you know when we get into it.	I will add this to  the folder and let you know when we get into it.	23816433	1472547055054	1472547055230	t	84
45735	500301	I will add this to the folder and let you know when we get into it.	I will add this to  the folder and let you know when we get into it.	23816436	1472547055246	1472547055515	o	79
45735	500301	I will add this to the folder and let you know when we get into it.	I will add this to  the folder and let you know when we get into it.	23816438	1472547055500	1472547055547	 	32
45735	500301	I will add this to the folder and let you know when we get into it.	I will add this to  the folder and let you know when we get into it.	23816440	1472547055765	1472547055977	 	32
45735	500301	I will add this to the folder and let you know when we get into it.	I will add this to  the folder and let you know when we get into it.	23816548	1472547056714	1472547056903	t	84
45735	500301	I will add this to the folder and let you know when we get into it.	I will add this to  the folder and let you know when we get into it.	23816550	1472547056965	1472547057169	h	72
45735	500301	I will add this to the folder and let you know when we get into it.	I will add this to  the folder and let you know when we get into it.	23816551	1472547057371	1472547057601	e	69
45735	500301	I will add this to the folder and let you know when we get into it.	I will add this to  the folder and let you know when we get into it.	23816552	1472547057562	1472547057738	 	32
45735	500301	I will add this to the folder and let you know when we get into it.	I will add this to  the folder and let you know when we get into it.	23816553	1472547059070	1472547059230	f	70
45735	500301	I will add this to the folder and let you know when we get into it.	I will add this to  the folder and let you know when we get into it.	23816641	1472547059481	1472547059624	o	79
45735	500301	I will add this to the folder and let you know when we get into it.	I will add this to  the folder and let you know when we get into it.	23816644	1472547060141	1472547060313	l	76
45735	500301	I will add this to the folder and let you know when we get into it.	I will add this to  the folder and let you know when we get into it.	23816647	1472547060862	1472547061007	d	68
45735	500301	I will add this to the folder and let you know when we get into it.	I will add this to  the folder and let you know when we get into it.	23816650	1472547061194	1472547061324	e	69
45735	500301	I will add this to the folder and let you know when we get into it.	I will add this to  the folder and let you know when we get into it.	23816652	1472547061683	1472547061840	r	82
45735	500301	I will add this to the folder and let you know when we get into it.	I will add this to  the folder and let you know when we get into it.	23816723	1472547062090	1472547062265	 	32
45735	500301	I will add this to the folder and let you know when we get into it.	I will add this to  the folder and let you know when we get into it.	23816725	1472547062905	1472547063034	a	65
45735	500301	I will add this to the folder and let you know when we get into it.	I will add this to  the folder and let you know when we get into it.	23816728	1472547063252	1472547063382	n	78
45735	500301	I will add this to the folder and let you know when we get into it.	I will add this to  the folder and let you know when we get into it.	23816730	1472547064024	1472547064212	d	68
45735	500301	I will add this to the folder and let you know when we get into it.	I will add this to  the folder and let you know when we get into it.	23816732	1472547064243	1472547064413	 	32
45735	500301	I will add this to the folder and let you know when we get into it.	I will add this to  the folder and let you know when we get into it.	23816873	1472547065651	1472547065789	l	76
45735	500301	I will add this to the folder and let you know when we get into it.	I will add this to  the folder and let you know when we get into it.	23816875	1472547066324	1472547066450	e	69
45735	500301	I will add this to the folder and let you know when we get into it.	I will add this to  the folder and let you know when we get into it.	23816878	1472547066559	1472547066730	t	84
45735	500301	I will add this to the folder and let you know when we get into it.	I will add this to  the folder and let you know when we get into it.	23816880	1472547066746	1472547066969	 	32
45735	500301	I will add this to the folder and let you know when we get into it.	I will add this to  the folder and let you know when we get into it.	23816882	1472547069147	1472547069354	y	89
45735	500301	I will add this to the folder and let you know when we get into it.	I will add this to  the folder and let you know when we get into it.	23816988	1472547069401	1472547069617	o	79
45735	500301	I will add this to the folder and let you know when we get into it.	I will add this to  the folder and let you know when we get into it.	23816990	1472547069680	1472547070027	u	85
45735	500301	I will add this to the folder and let you know when we get into it.	I will add this to  the folder and let you know when we get into it.	23816994	1472547070136	1472547070281	 	32
45735	500301	I will add this to the folder and let you know when we get into it.	I will add this to  the folder and let you know when we get into it.	23816996	1472547071612	1472547071773	k	75
45735	500301	I will add this to the folder and let you know when we get into it.	I will add this to  the folder and let you know when we get into it.	23816998	1472547072634	1472547072790	n	78
45735	500301	I will add this to the folder and let you know when we get into it.	I will add this to  the folder and let you know when we get into it.	23817090	1472547073072	1472547073293	o	79
45735	500301	I will add this to the folder and let you know when we get into it.	I will add this to  the folder and let you know when we get into it.	23817093	1472547074360	1472547074513	w	87
45735	500301	I will add this to the folder and let you know when we get into it.	I will add this to  the folder and let you know when we get into it.	23817095	1472547075032	1472547075203	 	32
45735	500301	I will add this to the folder and let you know when we get into it.	I will add this to  the folder and let you know when we get into it.	23817096	1472547076255	1472547076382	w	87
45735	500301	I will add this to the folder and let you know when we get into it.	I will add this to  the folder and let you know when we get into it.	23817097	1472547076804	1472547076964	h	72
45735	500301	I will add this to the folder and let you know when we get into it.	I will add this to  the folder and let you know when we get into it.	23817158	1472547077151	1472547077290	e	69
45735	500301	I will add this to the folder and let you know when we get into it.	I will add this to  the folder and let you know when we get into it.	23817160	1472547077588	1472547077762	n	78
45735	500301	I will add this to the folder and let you know when we get into it.	I will add this to  the folder and let you know when we get into it.	23817165	1472547077778	1472547077938	 	32
45735	500301	I will add this to the folder and let you know when we get into it.	I will add this to  the folder and let you know when we get into it.	23817170	1472547079037	1472547079227	w	87
45735	500301	I will add this to the folder and let you know when we get into it.	I will add this to  the folder and let you know when we get into it.	23817267	1472547079212	1472547079466	e	69
45735	500301	I will add this to the folder and let you know when we get into it.	I will add this to  the folder and let you know when we get into it.	23817268	1472547079544	1472547079737	 	32
45735	500301	I will add this to the folder and let you know when we get into it.	I will add this to  the folder and let you know when we get into it.	23817269	1472547081790	1472547082009	g	71
45735	500301	I will add this to the folder and let you know when we get into it.	I will add this to  the folder and let you know when we get into it.	23817270	1472547082274	1472547082447	e	69
45735	500301	I will add this to the folder and let you know when we get into it.	I will add this to  the folder and let you know when we get into it.	23817271	1472547082759	1472547082913	t	84
45735	500301	I will add this to the folder and let you know when we get into it.	I will add this to  the folder and let you know when we get into it.	23817272	1472547083132	1472547083336	 	32
45735	500301	I will add this to the folder and let you know when we get into it.	I will add this to  the folder and let you know when we get into it.	23817380	1472547084417	1472547084557	i	73
45735	500301	I will add this to the folder and let you know when we get into it.	I will add this to  the folder and let you know when we get into it.	23817383	1472547084884	1472547085069	n	78
45735	500301	I will add this to the folder and let you know when we get into it.	I will add this to  the folder and let you know when we get into it.	23817387	1472547086291	1472547086416	t	84
45735	500301	I will add this to the folder and let you know when we get into it.	I will add this to  the folder and let you know when we get into it.	23817391	1472547086556	1472547086776	o	79
45735	500301	I will add this to the folder and let you know when we get into it.	I will add this to  the folder and let you know when we get into it.	23817395	1472547086776	1472547086977	 	32
45735	500301	I will add this to the folder and let you know when we get into it.	I will add this to  the folder and let you know when we get into it.	23817483	1472547089282	1472547089486	i	73
45735	500301	I will add this to the folder and let you know when we get into it.	I will add this to  the folder and let you know when we get into it.	23817487	1472547089486	1472547089646	t	84
45735	500301	I will add this to the folder and let you know when we get into it.	I will add this to  the folder and let you know when we get into it.	23817488	1472547090352	1472547090481	.	190
45735	500330	They spent about two hours at Larnaca airport.	They spent about two hours at Larnaca airport.	23817637	1472547096170	1472547096737	SHIFT	16
45735	500330	They spent about two hours at Larnaca airport.	They spent about two hours at Larnaca airport.	23817638	1472547096562	1472547096752	T	84
45735	500330	They spent about two hours at Larnaca airport.	They spent about two hours at Larnaca airport.	23817639	1472547096893	1472547097078	h	72
45735	500330	They spent about two hours at Larnaca airport.	They spent about two hours at Larnaca airport.	23817641	1472547097503	1472547097678	e	69
45735	500330	They spent about two hours at Larnaca airport.	They spent about two hours at Larnaca airport.	23817643	1472547097709	1472547097925	y	89
45735	500330	They spent about two hours at Larnaca airport.	They spent about two hours at Larnaca airport.	23817645	1472547097940	1472547098144	 	32
45735	500330	They spent about two hours at Larnaca airport.	They spent about two hours at Larnaca airport.	23817715	1472547100199	1472547100355	s	83
45735	500330	They spent about two hours at Larnaca airport.	They spent about two hours at Larnaca airport.	23817717	1472547100418	1472547100578	p	80
45735	500330	They spent about two hours at Larnaca airport.	They spent about two hours at Larnaca airport.	23817719	1472547101017	1472547101162	e	69
45735	500330	They spent about two hours at Larnaca airport.	They spent about two hours at Larnaca airport.	23817721	1472547101490	1472547101646	n	78
45735	500330	They spent about two hours at Larnaca airport.	They spent about two hours at Larnaca airport.	23817724	1472547101926	1472547102165	t	84
45735	500330	They spent about two hours at Larnaca airport.	They spent about two hours at Larnaca airport.	23817800	1472547102165	1472547102336	 	32
45735	500330	They spent about two hours at Larnaca airport.	They spent about two hours at Larnaca airport.	23817802	1472547103197	1472547103355	a	65
45735	500330	They spent about two hours at Larnaca airport.	They spent about two hours at Larnaca airport.	23817804	1472547103573	1472547103761	b	66
45735	500330	They spent about two hours at Larnaca airport.	They spent about two hours at Larnaca airport.	23817806	1472547104011	1472547104172	o	79
45735	500330	They spent about two hours at Larnaca airport.	They spent about two hours at Larnaca airport.	23817808	1472547104359	1472547104544	u	85
45735	500330	They spent about two hours at Larnaca airport.	They spent about two hours at Larnaca airport.	23817810	1472547104575	1472547104916	t	84
45735	500330	They spent about two hours at Larnaca airport.	They spent about two hours at Larnaca airport.	23817858	1472547105011	1472547105139	 	32
45735	500330	They spent about two hours at Larnaca airport.	They spent about two hours at Larnaca airport.	23817859	1472547106143	1472547106304	t	84
45735	500330	They spent about two hours at Larnaca airport.	They spent about two hours at Larnaca airport.	23817860	1472547106915	1472547107086	w	87
45735	500330	They spent about two hours at Larnaca airport.	They spent about two hours at Larnaca airport.	23817861	1472547107526	1472547107688	o	79
45735	500330	They spent about two hours at Larnaca airport.	They spent about two hours at Larnaca airport.	23817862	1472547107719	1472547107956	 	32
45735	500330	They spent about two hours at Larnaca airport.	They spent about two hours at Larnaca airport.	23817923	1472547109225	1472547109394	h	72
45735	500330	They spent about two hours at Larnaca airport.	They spent about two hours at Larnaca airport.	23817926	1472547109753	1472547109864	o	79
45735	500330	They spent about two hours at Larnaca airport.	They spent about two hours at Larnaca airport.	23817928	1472547109974	1472547110144	u	85
45735	500330	They spent about two hours at Larnaca airport.	They spent about two hours at Larnaca airport.	23817930	1472547110269	1472547110524	r	82
45735	500330	They spent about two hours at Larnaca airport.	They spent about two hours at Larnaca airport.	23817931	1472547110540	1472547110711	 	32
45735	500330	They spent about two hours at Larnaca airport.	They spent about two hours at Larnaca airport.	23818080	1472547111668	1472547111813	BKSP	8
45735	500330	They spent about two hours at Larnaca airport.	They spent about two hours at Larnaca airport.	23818082	1472547113538	1472547113743	s	83
45735	500330	They spent about two hours at Larnaca airport.	They spent about two hours at Larnaca airport.	23818084	1472547113727	1472547113966	 	32
45735	500330	They spent about two hours at Larnaca airport.	They spent about two hours at Larnaca airport.	23818087	1472547115032	1472547115188	a	65
45735	500330	They spent about two hours at Larnaca airport.	They spent about two hours at Larnaca airport.	23818089	1472547115422	1472547115641	t	84
45735	500330	They spent about two hours at Larnaca airport.	They spent about two hours at Larnaca airport.	23818091	1472547115641	1472547115858	 	32
45735	500330	They spent about two hours at Larnaca airport.	They spent about two hours at Larnaca airport.	23818255	1472547116640	1472547117555	SHIFT	16
45735	500330	They spent about two hours at Larnaca airport.	They spent about two hours at Larnaca airport.	23818257	1472547117411	1472547117571	L	76
45735	500330	They spent about two hours at Larnaca airport.	They spent about two hours at Larnaca airport.	23818259	1472547118462	1472547118636	a	65
45735	500330	They spent about two hours at Larnaca airport.	They spent about two hours at Larnaca airport.	23818262	1472547119122	1472547119294	r	82
45735	500330	They spent about two hours at Larnaca airport.	They spent about two hours at Larnaca airport.	23818265	1472547120532	1472547120735	n	78
45735	500330	They spent about two hours at Larnaca airport.	They spent about two hours at Larnaca airport.	23818267	1472547121423	1472547121609	a	65
45735	500330	They spent about two hours at Larnaca airport.	They spent about two hours at Larnaca airport.	23818353	1472547121954	1472547122033	c	67
45735	500330	They spent about two hours at Larnaca airport.	They spent about two hours at Larnaca airport.	23818356	1472547122361	1472547122505	a	65
45735	500330	They spent about two hours at Larnaca airport.	They spent about two hours at Larnaca airport.	23818361	1472547122677	1472547122869	 	32
45735	500330	They spent about two hours at Larnaca airport.	They spent about two hours at Larnaca airport.	23818366	1472547124748	1472547124935	a	65
45735	500330	They spent about two hours at Larnaca airport.	They spent about two hours at Larnaca airport.	23818372	1472547125045	1472547125203	i	73
45735	500330	They spent about two hours at Larnaca airport.	They spent about two hours at Larnaca airport.	23818431	1472547125642	1472547125804	r	82
45735	500330	They spent about two hours at Larnaca airport.	They spent about two hours at Larnaca airport.	23818432	1472547126398	1472547126553	p	80
45735	500330	They spent about two hours at Larnaca airport.	They spent about two hours at Larnaca airport.	23818433	1472547126631	1472547126788	o	79
45735	500330	They spent about two hours at Larnaca airport.	They spent about two hours at Larnaca airport.	23818434	1472547127351	1472547127463	r	82
45735	500330	They spent about two hours at Larnaca airport.	They spent about two hours at Larnaca airport.	23818435	1472547127572	1472547127745	t	84
45735	500330	They spent about two hours at Larnaca airport.	They spent about two hours at Larnaca airport.	23818499	1472547129344	1472547129472	.	190
45735	500359	See the list below.	See the list below.	23818776	1472547138261	1472547138873	SHIFT	16
45735	500359	See the list below.	See the list below.	23818779	1472547138761	1472547138936	S	83
45735	500359	See the list below.	See the list below.	23818783	1472547139139	1472547139216	e	69
45735	500359	See the list below.	See the list below.	23818786	1472547139279	1472547139374	e	69
45735	500359	See the list below.	See the list below.	23818787	1472547139779	1472547139967	 	32
45735	500359	See the list below.	See the list below.	23818789	1472547140407	1472547140561	t	84
45735	500359	See the list below.	See the list below.	23818846	1472547140609	1472547140865	h	72
45735	500359	See the list below.	See the list below.	23818850	1472547141208	1472547141401	e	69
45735	500359	See the list below.	See the list below.	23818855	1472547141432	1472547141640	 	32
45735	500359	See the list below.	See the list below.	23818860	1472547142236	1472547142363	l	76
45735	500359	See the list below.	See the list below.	23818865	1472547142441	1472547142587	i	73
45735	500359	See the list below.	See the list below.	23818930	1472547143088	1472547143277	s	83
45735	500359	See the list below.	See the list below.	23818933	1472547143762	1472547143919	t	84
45735	500359	See the list below.	See the list below.	23818939	1472547143950	1472547144157	 	32
45735	500359	See the list below.	See the list below.	23818943	1472547144768	1472547144926	b	66
45735	500359	See the list below.	See the list below.	23818946	1472547145285	1472547145444	e	69
45735	500359	See the list below.	See the list below.	23819045	1472547145993	1472547146137	l	76
45735	500359	See the list below.	See the list below.	23819048	1472547146496	1472547146638	o	79
45735	500359	See the list below.	See the list below.	23819053	1472547147123	1472547147246	w	87
45735	500359	See the list below.	See the list below.	23819058	1472547147764	1472547147919	.	190
45735	500390	Might include proposals with respect to Alaska.	Might include proposals with respect to Alaska.	23820220	1472547181698	1472547182293	CTRL	17
45735	500390	Might include proposals with respect to Alaska.	Might include proposals with respect to Alaska.	23820222	1472547182167	1472547182308		77
45735	500390	Might include proposals with respect to Alaska.	Might include proposals with respect to Alaska.	23820224	1472547183045	1472547183161	i	73
45735	500390	Might include proposals with respect to Alaska.	Might include proposals with respect to Alaska.	23820226	1472547184101	1472547184244	g	71
45735	500390	Might include proposals with respect to Alaska.	Might include proposals with respect to Alaska.	23820228	1472547184446	1472547184648	h	72
45735	500390	Might include proposals with respect to Alaska.	Might include proposals with respect to Alaska.	23820230	1472547184710	1472547185007	t	84
45735	500390	Might include proposals with respect to Alaska.	Might include proposals with respect to Alaska.	23820460	1472547185055	1472547185225	 	32
45735	500390	Might include proposals with respect to Alaska.	Might include proposals with respect to Alaska.	23820462	1472547186510	1472547186591	BKSP	8
45735	500390	Might include proposals with respect to Alaska.	Might include proposals with respect to Alaska.	23820466	1472547186669	1472547186747	BKSP	8
45735	500390	Might include proposals with respect to Alaska.	Might include proposals with respect to Alaska.	23820472	1472547186810	1472547186889	BKSP	8
45735	500390	Might include proposals with respect to Alaska.	Might include proposals with respect to Alaska.	23820477	1472547186952	1472547187031	BKSP	8
45735	500390	Might include proposals with respect to Alaska.	Might include proposals with respect to Alaska.	23820481	1472547187109	1472547187189	BKSP	8
45735	500390	Might include proposals with respect to Alaska.	Might include proposals with respect to Alaska.	23820486	1472547188097	1472547189526	SHIFT	16
45735	500390	Might include proposals with respect to Alaska.	Might include proposals with respect to Alaska.	23820485	1472547189369	1472547189526	M	77
45735	500390	Might include proposals with respect to Alaska.	Might include proposals with respect to Alaska.	23820487	1472547191297	1472547191474	i	73
45735	500390	Might include proposals with respect to Alaska.	Might include proposals with respect to Alaska.	23820488	1472547192555	1472547192725	g	71
45735	500390	Might include proposals with respect to Alaska.	Might include proposals with respect to Alaska.	23820490	1472547192756	1472547192971	h	72
45735	500390	Might include proposals with respect to Alaska.	Might include proposals with respect to Alaska.	23820550	1472547193190	1472547193381	t	84
45735	500390	Might include proposals with respect to Alaska.	Might include proposals with respect to Alaska.	23820551	1472547193397	1472547193644	 	32
45735	500390	Might include proposals with respect to Alaska.	Might include proposals with respect to Alaska.	23820552	1472547194680	1472547194804	i	73
45735	500390	Might include proposals with respect to Alaska.	Might include proposals with respect to Alaska.	23820553	1472547194991	1472547195152	n	78
45735	500390	Might include proposals with respect to Alaska.	Might include proposals with respect to Alaska.	23820555	1472547196094	1472547196196	c	67
45735	500390	Might include proposals with respect to Alaska.	Might include proposals with respect to Alaska.	23820625	1472547196671	1472547196786	l	76
45735	500390	Might include proposals with respect to Alaska.	Might include proposals with respect to Alaska.	23820626	1472547197367	1472547197526	u	85
45735	500390	Might include proposals with respect to Alaska.	Might include proposals with respect to Alaska.	23820627	1472547198246	1472547198370	d	68
45735	500390	Might include proposals with respect to Alaska.	Might include proposals with respect to Alaska.	23820628	1472547198604	1472547198698	e	69
45735	500390	Might include proposals with respect to Alaska.	Might include proposals with respect to Alaska.	23820629	1472547199387	1472547199544	 	32
45735	500390	Might include proposals with respect to Alaska.	Might include proposals with respect to Alaska.	23820773	1472547200657	1472547200802	p	80
45735	500390	Might include proposals with respect to Alaska.	Might include proposals with respect to Alaska.	23820775	1472547201460	1472547201619	r	82
45735	500390	Might include proposals with respect to Alaska.	Might include proposals with respect to Alaska.	23820776	1472547201775	1472547201919	o	79
45735	500390	Might include proposals with respect to Alaska.	Might include proposals with respect to Alaska.	23820779	1472547203643	1472547203770	p	80
45735	500390	Might include proposals with respect to Alaska.	Might include proposals with respect to Alaska.	23820783	1472547203833	1472547203961	o	79
45735	500390	Might include proposals with respect to Alaska.	Might include proposals with respect to Alaska.	23820926	1472547204886	1472547205012	s	83
45735	500390	Might include proposals with respect to Alaska.	Might include proposals with respect to Alaska.	23820929	1472547205152	1472547205294	a	65
45735	500390	Might include proposals with respect to Alaska.	Might include proposals with respect to Alaska.	23820932	1472547205859	1472547206017	l	76
45735	500390	Might include proposals with respect to Alaska.	Might include proposals with respect to Alaska.	23820934	1472547207758	1472547207980	s	83
45735	500390	Might include proposals with respect to Alaska.	Might include proposals with respect to Alaska.	23820936	1472547208607	1472547208814	 	32
45735	500390	Might include proposals with respect to Alaska.	Might include proposals with respect to Alaska.	23821019	1472547210367	1472547210525	w	87
45735	500390	Might include proposals with respect to Alaska.	Might include proposals with respect to Alaska.	23821020	1472547210951	1472547211118	i	73
45735	500390	Might include proposals with respect to Alaska.	Might include proposals with respect to Alaska.	23821022	1472547211492	1472547211652	t	84
45735	500390	Might include proposals with respect to Alaska.	Might include proposals with respect to Alaska.	23821024	1472547211683	1472547211890	h	72
45735	500390	Might include proposals with respect to Alaska.	Might include proposals with respect to Alaska.	23821025	1472547211905	1472547212092	 	32
45735	500390	Might include proposals with respect to Alaska.	Might include proposals with respect to Alaska.	23821188	1472547214130	1472547214347	r	82
45735	500390	Might include proposals with respect to Alaska.	Might include proposals with respect to Alaska.	23821191	1472547214394	1472547214520	e	69
45735	500390	Might include proposals with respect to Alaska.	Might include proposals with respect to Alaska.	23821196	1472547214708	1472547214882	s	83
45735	500390	Might include proposals with respect to Alaska.	Might include proposals with respect to Alaska.	23821200	1472547216764	1472547216887	p	80
45735	500390	Might include proposals with respect to Alaska.	Might include proposals with respect to Alaska.	23821201	1472547218092	1472547218236	e	69
45735	500390	Might include proposals with respect to Alaska.	Might include proposals with respect to Alaska.	23821332	1472547218970	1472547219110	c	67
45735	500390	Might include proposals with respect to Alaska.	Might include proposals with respect to Alaska.	23821334	1472547219407	1472547219645	t	84
45735	500390	Might include proposals with respect to Alaska.	Might include proposals with respect to Alaska.	23821339	1472547220539	1472547220747	 	32
45735	500390	Might include proposals with respect to Alaska.	Might include proposals with respect to Alaska.	23821342	1472547221405	1472547221559	t	84
45735	500390	Might include proposals with respect to Alaska.	Might include proposals with respect to Alaska.	23821345	1472547221902	1472547222125	o	79
45735	500390	Might include proposals with respect to Alaska.	Might include proposals with respect to Alaska.	23821478	1472547222090	1472547222297	 	32
45735	500390	Might include proposals with respect to Alaska.	Might include proposals with respect to Alaska.	23821480	1472547223095	1472547224196	SHIFT	16
45735	500390	Might include proposals with respect to Alaska.	Might include proposals with respect to Alaska.	23821481	1472547224084	1472547224258	A	65
45735	500390	Might include proposals with respect to Alaska.	Might include proposals with respect to Alaska.	23821482	1472547224838	1472547224992	l	76
45735	500390	Might include proposals with respect to Alaska.	Might include proposals with respect to Alaska.	23821483	1472547225226	1472547225385	a	65
45735	500390	Might include proposals with respect to Alaska.	Might include proposals with respect to Alaska.	23821484	1472547225588	1472547225710	s	83
45735	500390	Might include proposals with respect to Alaska.	Might include proposals with respect to Alaska.	23821485	1472547226918	1472547227107	k	75
45735	500390	Might include proposals with respect to Alaska.	Might include proposals with respect to Alaska.	23821554	1472547227201	1472547227343	a	65
45735	500390	Might include proposals with respect to Alaska.	Might include proposals with respect to Alaska.	23821556	1472547229772	1472547229902	.	190
