PARTICIPANT_ID	TEST_SECTION_ID	SENTENCE	USER_INPUT	KEYSTROKE_ID	PRESS_TIME	RELEASE_TIME	LETTER	KEYCODE
504362	5426390	England star Paul Gascoigne was one of the recipients of the loans.	England star Paul Gascoigne was one of the recipients of the loans. 	257573421	1478875121823	1478875121947	SHIFT	16
504362	5426390	England star Paul Gascoigne was one of the recipients of the loans.	England star Paul Gascoigne was one of the recipients of the loans. 	257573424	1478875121907	1478875122002	E	69
504362	5426390	England star Paul Gascoigne was one of the recipients of the loans.	England star Paul Gascoigne was one of the recipients of the loans. 	257573427	1478875122018	1478875122099	n	78
504362	5426390	England star Paul Gascoigne was one of the recipients of the loans.	England star Paul Gascoigne was one of the recipients of the loans. 	257573428	1478875122115	1478875122178	g	71
504362	5426390	England star Paul Gascoigne was one of the recipients of the loans.	England star Paul Gascoigne was one of the recipients of the loans. 	257573430	1478875122267	1478875122322	l	76
504362	5426390	England star Paul Gascoigne was one of the recipients of the loans.	England star Paul Gascoigne was one of the recipients of the loans. 	257573432	1478875122323	1478875122418	a	65
504362	5426390	England star Paul Gascoigne was one of the recipients of the loans.	England star Paul Gascoigne was one of the recipients of the loans. 	257573460	1478875122482	1478875122546	n	78
504362	5426390	England star Paul Gascoigne was one of the recipients of the loans.	England star Paul Gascoigne was one of the recipients of the loans. 	257573462	1478875122635	1478875122738	d	68
504362	5426390	England star Paul Gascoigne was one of the recipients of the loans.	England star Paul Gascoigne was one of the recipients of the loans. 	257573465	1478875122739	1478875122827	 	32
504362	5426390	England star Paul Gascoigne was one of the recipients of the loans.	England star Paul Gascoigne was one of the recipients of the loans. 	257573469	1478875123034	1478875123154	s	83
504362	5426390	England star Paul Gascoigne was one of the recipients of the loans.	England star Paul Gascoigne was one of the recipients of the loans. 	257573507	1478875123138	1478875123226	t	84
504362	5426390	England star Paul Gascoigne was one of the recipients of the loans.	England star Paul Gascoigne was one of the recipients of the loans. 	257573509	1478875123258	1478875123410	a	65
504362	5426390	England star Paul Gascoigne was one of the recipients of the loans.	England star Paul Gascoigne was one of the recipients of the loans. 	257573510	1478875123370	1478875123506	r	82
504362	5426390	England star Paul Gascoigne was one of the recipients of the loans.	England star Paul Gascoigne was one of the recipients of the loans. 	257573511	1478875123602	1478875123698	 	32
504362	5426390	England star Paul Gascoigne was one of the recipients of the loans.	England star Paul Gascoigne was one of the recipients of the loans. 	257573512	1478875123810	1478875124043	SHIFT	16
504362	5426390	England star Paul Gascoigne was one of the recipients of the loans.	England star Paul Gascoigne was one of the recipients of the loans. 	257573513	1478875123987	1478875124043	P	80
504362	5426390	England star Paul Gascoigne was one of the recipients of the loans.	England star Paul Gascoigne was one of the recipients of the loans. 	257573515	1478875124194	1478875124258	a	65
504362	5426390	England star Paul Gascoigne was one of the recipients of the loans.	England star Paul Gascoigne was one of the recipients of the loans. 	257573533	1478875124261	1478875124323	u	85
504362	5426390	England star Paul Gascoigne was one of the recipients of the loans.	England star Paul Gascoigne was one of the recipients of the loans. 	257573535	1478875124482	1478875124530	l	76
504362	5426390	England star Paul Gascoigne was one of the recipients of the loans.	England star Paul Gascoigne was one of the recipients of the loans. 	257573536	1478875124522	1478875124674	 	32
504362	5426390	England star Paul Gascoigne was one of the recipients of the loans.	England star Paul Gascoigne was one of the recipients of the loans. 	257573538	1478875124602	1478875124786	SHIFT	16
504362	5426390	England star Paul Gascoigne was one of the recipients of the loans.	England star Paul Gascoigne was one of the recipients of the loans. 	257573539	1478875124754	1478875124850	G	71
504362	5426390	England star Paul Gascoigne was one of the recipients of the loans.	England star Paul Gascoigne was one of the recipients of the loans. 	257573541	1478875124930	1478875125042	a	65
504362	5426390	England star Paul Gascoigne was one of the recipients of the loans.	England star Paul Gascoigne was one of the recipients of the loans. 	257573573	1478875125002	1478875125146	s	83
504362	5426390	England star Paul Gascoigne was one of the recipients of the loans.	England star Paul Gascoigne was one of the recipients of the loans. 	257573576	1478875125275	1478875125354	c	67
504362	5426390	England star Paul Gascoigne was one of the recipients of the loans.	England star Paul Gascoigne was one of the recipients of the loans. 	257573581	1478875125435	1478875125483	o	79
504362	5426390	England star Paul Gascoigne was one of the recipients of the loans.	England star Paul Gascoigne was one of the recipients of the loans. 	257573582	1478875125594	1478875125650	i	73
504362	5426390	England star Paul Gascoigne was one of the recipients of the loans.	England star Paul Gascoigne was one of the recipients of the loans. 	257573585	1478875125938	1478875125994	g	71
504362	5426390	England star Paul Gascoigne was one of the recipients of the loans.	England star Paul Gascoigne was one of the recipients of the loans. 	257573589	1478875126034	1478875126090	n	78
504362	5426390	England star Paul Gascoigne was one of the recipients of the loans.	England star Paul Gascoigne was one of the recipients of the loans. 	257573606	1478875126167	1478875126210	e	69
504362	5426390	England star Paul Gascoigne was one of the recipients of the loans.	England star Paul Gascoigne was one of the recipients of the loans. 	257573608	1478875126266	1478875126346	 	32
504362	5426390	England star Paul Gascoigne was one of the recipients of the loans.	England star Paul Gascoigne was one of the recipients of the loans. 	257573611	1478875126426	1478875126546	w	87
504362	5426390	England star Paul Gascoigne was one of the recipients of the loans.	England star Paul Gascoigne was one of the recipients of the loans. 	257573617	1478875126514	1478875126666	a	65
504362	5426390	England star Paul Gascoigne was one of the recipients of the loans.	England star Paul Gascoigne was one of the recipients of the loans. 	257573657	1478875126618	1478875126770	s	83
504362	5426390	England star Paul Gascoigne was one of the recipients of the loans.	England star Paul Gascoigne was one of the recipients of the loans. 	257573661	1478875126754	1478875126826	 	32
504362	5426390	England star Paul Gascoigne was one of the recipients of the loans.	England star Paul Gascoigne was one of the recipients of the loans. 	257573666	1478875126939	1478875127058	o	79
504362	5426390	England star Paul Gascoigne was one of the recipients of the loans.	England star Paul Gascoigne was one of the recipients of the loans. 	257573671	1478875126994	1478875127114	n	78
504362	5426390	England star Paul Gascoigne was one of the recipients of the loans.	England star Paul Gascoigne was one of the recipients of the loans. 	257573677	1478875127130	1478875127210	e	69
504362	5426390	England star Paul Gascoigne was one of the recipients of the loans.	England star Paul Gascoigne was one of the recipients of the loans. 	257573679	1478875127250	1478875127322	 	32
504362	5426390	England star Paul Gascoigne was one of the recipients of the loans.	England star Paul Gascoigne was one of the recipients of the loans. 	257573681	1478875127426	1478875127498	o	79
504362	5426390	England star Paul Gascoigne was one of the recipients of the loans.	England star Paul Gascoigne was one of the recipients of the loans. 	257573682	1478875127450	1478875127562	f	70
504362	5426390	England star Paul Gascoigne was one of the recipients of the loans.	England star Paul Gascoigne was one of the recipients of the loans. 	257573684	1478875127618	1478875127674	 	32
504362	5426390	England star Paul Gascoigne was one of the recipients of the loans.	England star Paul Gascoigne was one of the recipients of the loans. 	257573690	1478875127683	1478875127754	t	84
504362	5426390	England star Paul Gascoigne was one of the recipients of the loans.	England star Paul Gascoigne was one of the recipients of the loans. 	257573697	1478875127755	1478875127810	h	72
504362	5426390	England star Paul Gascoigne was one of the recipients of the loans.	England star Paul Gascoigne was one of the recipients of the loans. 	257573723	1478875127834	1478875127914	e	69
504362	5426390	England star Paul Gascoigne was one of the recipients of the loans.	England star Paul Gascoigne was one of the recipients of the loans. 	257573724	1478875127874	1478875128010	 	32
504362	5426390	England star Paul Gascoigne was one of the recipients of the loans.	England star Paul Gascoigne was one of the recipients of the loans. 	257573726	1478875128138	1478875128242	r	82
504362	5426390	England star Paul Gascoigne was one of the recipients of the loans.	England star Paul Gascoigne was one of the recipients of the loans. 	257573728	1478875128202	1478875128298	e	69
504362	5426390	England star Paul Gascoigne was one of the recipients of the loans.	England star Paul Gascoigne was one of the recipients of the loans. 	257573734	1478875128378	1478875128506	c	67
504362	5426390	England star Paul Gascoigne was one of the recipients of the loans.	England star Paul Gascoigne was one of the recipients of the loans. 	257573814	1478875128930	1478875128978	i	73
504362	5426390	England star Paul Gascoigne was one of the recipients of the loans.	England star Paul Gascoigne was one of the recipients of the loans. 	257573817	1478875129114	1478875129170	p	80
504362	5426390	England star Paul Gascoigne was one of the recipients of the loans.	England star Paul Gascoigne was one of the recipients of the loans. 	257573819	1478875129242	1478875129322	e	69
504362	5426390	England star Paul Gascoigne was one of the recipients of the loans.	England star Paul Gascoigne was one of the recipients of the loans. 	257573821	1478875129722	1478875129778	BKSP	8
504362	5426390	England star Paul Gascoigne was one of the recipients of the loans.	England star Paul Gascoigne was one of the recipients of the loans. 	257573823	1478875129922	1478875129962	i	73
504362	5426390	England star Paul Gascoigne was one of the recipients of the loans.	England star Paul Gascoigne was one of the recipients of the loans. 	257573825	1478875130002	1478875130066	e	69
504362	5426390	England star Paul Gascoigne was one of the recipients of the loans.	England star Paul Gascoigne was one of the recipients of the loans. 	257573838	1478875130098	1478875130162	n	78
504362	5426390	England star Paul Gascoigne was one of the recipients of the loans.	England star Paul Gascoigne was one of the recipients of the loans. 	257573840	1478875130242	1478875130346	t	84
504362	5426390	England star Paul Gascoigne was one of the recipients of the loans.	England star Paul Gascoigne was one of the recipients of the loans. 	257573844	1478875130346	1478875130442	s	83
504362	5426390	England star Paul Gascoigne was one of the recipients of the loans.	England star Paul Gascoigne was one of the recipients of the loans. 	257573850	1478875130482	1478875130554	 	32
504362	5426390	England star Paul Gascoigne was one of the recipients of the loans.	England star Paul Gascoigne was one of the recipients of the loans. 	257573894	1478875130666	1478875130754	o	70
504362	5426390	England star Paul Gascoigne was one of the recipients of the loans.	England star Paul Gascoigne was one of the recipients of the loans. 	257573897	1478875130818	1478875130874	 	32
504362	5426390	England star Paul Gascoigne was one of the recipients of the loans.	England star Paul Gascoigne was one of the recipients of the loans. 	257573899	1478875130890	1478875130970	t	84
504362	5426390	England star Paul Gascoigne was one of the recipients of the loans.	England star Paul Gascoigne was one of the recipients of the loans. 	257573902	1478875130954	1478875131026	h	72
504362	5426390	England star Paul Gascoigne was one of the recipients of the loans.	England star Paul Gascoigne was one of the recipients of the loans. 	257573904	1478875131098	1478875131114	e	69
504362	5426390	England star Paul Gascoigne was one of the recipients of the loans.	England star Paul Gascoigne was one of the recipients of the loans. 	257573908	1478875131274	1478875131330	BKSP	8
504362	5426390	England star Paul Gascoigne was one of the recipients of the loans.	England star Paul Gascoigne was one of the recipients of the loans. 	257573910	1478875131386	1478875131450	BKSP	8
504362	5426390	England star Paul Gascoigne was one of the recipients of the loans.	England star Paul Gascoigne was one of the recipients of the loans. 	257573913	1478875131522	1478875131578	BKSP	8
504362	5426390	England star Paul Gascoigne was one of the recipients of the loans.	England star Paul Gascoigne was one of the recipients of the loans. 	257573918	1478875131658	1478875131722	BKSP	8
504362	5426390	England star Paul Gascoigne was one of the recipients of the loans.	England star Paul Gascoigne was one of the recipients of the loans. 	257573923	1478875131793	1478875131865	BKSP	8
504362	5426390	England star Paul Gascoigne was one of the recipients of the loans.	England star Paul Gascoigne was one of the recipients of the loans. 	257573927	1478875131915	1478875132018	BKSP	8
504362	5426390	England star Paul Gascoigne was one of the recipients of the loans.	England star Paul Gascoigne was one of the recipients of the loans. 	257573930	1478875132154	1478875132202	o	79
504362	5426390	England star Paul Gascoigne was one of the recipients of the loans.	England star Paul Gascoigne was one of the recipients of the loans. 	257573917	1478875132204	1478875132290	f	70
504362	5426390	England star Paul Gascoigne was one of the recipients of the loans.	England star Paul Gascoigne was one of the recipients of the loans. 	257573920	1478875132345	1478875132370	 	32
504362	5426390	England star Paul Gascoigne was one of the recipients of the loans.	England star Paul Gascoigne was one of the recipients of the loans. 	257573924	1478875132402	1478875132458	t	84
504362	5426390	England star Paul Gascoigne was one of the recipients of the loans.	England star Paul Gascoigne was one of the recipients of the loans. 	257573926	1478875132458	1478875132514	h	72
504362	5426390	England star Paul Gascoigne was one of the recipients of the loans.	England star Paul Gascoigne was one of the recipients of the loans. 	257573928	1478875132579	1478875132634	 	69
504362	5426390	England star Paul Gascoigne was one of the recipients of the loans.	England star Paul Gascoigne was one of the recipients of the loans. 	257573950	1478875132819	1478875132859	l	76
504362	5426390	England star Paul Gascoigne was one of the recipients of the loans.	England star Paul Gascoigne was one of the recipients of the loans. 	257573954	1478875132923	1478875132995	o	79
504362	5426390	England star Paul Gascoigne was one of the recipients of the loans.	England star Paul Gascoigne was one of the recipients of the loans. 	257573956	1478875133011	1478875133115	a	65
504362	5426390	England star Paul Gascoigne was one of the recipients of the loans.	England star Paul Gascoigne was one of the recipients of the loans. 	257573958	1478875133075	1478875133194	d	68
504362	5426390	England star Paul Gascoigne was one of the recipients of the loans.	England star Paul Gascoigne was one of the recipients of the loans. 	257573959	1478875133419	1478875133475	BKSP	8
504362	5426390	England star Paul Gascoigne was one of the recipients of the loans.	England star Paul Gascoigne was one of the recipients of the loans. 	257573960	1478875133579	1478875133634	n	78
504362	5426390	England star Paul Gascoigne was one of the recipients of the loans.	England star Paul Gascoigne was one of the recipients of the loans. 	257573967	1478875133667	1478875133755	s	83
504362	5426390	England star Paul Gascoigne was one of the recipients of the loans.	England star Paul Gascoigne was one of the recipients of the loans. 	257573970	1478875133755	1478875133860	.	190
504362	5426390	England star Paul Gascoigne was one of the recipients of the loans.	England star Paul Gascoigne was one of the recipients of the loans. 	257573972	1478875133843	1478875133955	 	32
504362	5426412	That would be great.	That would be great. 	257574072	1478875137691	1478875137874	SHIFT	16
504362	5426412	That would be great.	That would be great. 	257574075	1478875137811	1478875137931	T	84
504362	5426412	That would be great.	That would be great. 	257574079	1478875137971	1478875138027	h	72
504362	5426412	That would be great.	That would be great. 	257574083	1478875138059	1478875138138	a	65
504362	5426412	That would be great.	That would be great. 	257574089	1478875138099	1478875138202	t	84
504362	5426412	That would be great.	That would be great. 	257574093	1478875138218	1478875138290	 	32
504362	5426412	That would be great.	That would be great. 	257574109	1478875138362	1478875138426	w	87
504362	5426412	That would be great.	That would be great. 	257574112	1478875138402	1478875138467	o	79
504362	5426412	That would be great.	That would be great. 	257574117	1478875138571	1478875138627	u	85
504362	5426412	That would be great.	That would be great. 	257574122	1478875138746	1478875138810	l	76
504362	5426412	That would be great.	That would be great. 	257574126	1478875138851	1478875138922	d	68
504362	5426412	That would be great.	That would be great. 	257574157	1478875138883	1478875138931	 	32
504362	5426412	That would be great.	That would be great. 	257574159	1478875138987	1478875139066	b	66
504362	5426412	That would be great.	That would be great. 	257574163	1478875139107	1478875139186	e	69
504362	5426412	That would be great.	That would be great. 	257574166	1478875139171	1478875139258	 	32
504362	5426412	That would be great.	That would be great. 	257574168	1478875139427	1478875139490	g	71
504362	5426412	That would be great.	That would be great. 	257574170	1478875139603	1478875139738	r	82
504362	5426412	That would be great.	That would be great. 	257574204	1478875139683	1478875139850	e	69
504362	5426412	That would be great.	That would be great. 	257574205	1478875139778	1478875139946	a	65
504362	5426412	That would be great.	That would be great. 	257574206	1478875139890	1478875140010	t	84
504362	5426412	That would be great.	That would be great. 	257574207	1478875140074	1478875140170	.	190
504362	5426412	That would be great.	That would be great. 	257574208	1478875140130	1478875140242	 	32
504362	5426417	Michael has his holiday performance.	Michael has his holiday performance. 	257574344	1478875142875	1478875143330	SHIFT	16
504362	5426417	Michael has his holiday performance.	Michael has his holiday performance. 	257574347	1478875144258	1478875144450	SHIFT	16
504362	5426417	Michael has his holiday performance.	Michael has his holiday performance. 	257574346	1478875144370	1478875144434	M	77
504362	5426417	Michael has his holiday performance.	Michael has his holiday performance. 	257574349	1478875144506	1478875144570	i	73
504362	5426417	Michael has his holiday performance.	Michael has his holiday performance. 	257574350	1478875144586	1478875144667	c	67
504362	5426417	Michael has his holiday performance.	Michael has his holiday performance. 	257574352	1478875144682	1478875144746	h	72
504362	5426417	Michael has his holiday performance.	Michael has his holiday performance. 	257574354	1478875144906	1478875144994	a	65
504362	5426417	Michael has his holiday performance.	Michael has his holiday performance. 	257574402	1478875145354	1478875145450	e	69
504362	5426417	Michael has his holiday performance.	Michael has his holiday performance. 	257574407	1478875145482	1478875145546	l	76
504362	5426417	Michael has his holiday performance.	Michael has his holiday performance. 	257574414	1478875145602	1478875145706	 	32
504362	5426417	Michael has his holiday performance.	Michael has his holiday performance. 	257574422	1478875145818	1478875145874	h	72
504362	5426417	Michael has his holiday performance.	Michael has his holiday performance. 	257574427	1478875145930	1478875146026	a	65
504362	5426417	Michael has his holiday performance.	Michael has his holiday performance. 	257574440	1478875145970	1478875146106	s	83
504362	5426417	Michael has his holiday performance.	Michael has his holiday performance. 	257574443	1478875146090	1478875146169	 	32
504362	5426417	Michael has his holiday performance.	Michael has his holiday performance. 	257574448	1478875146257	1478875146306	h	72
504362	5426417	Michael has his holiday performance.	Michael has his holiday performance. 	257574455	1478875146290	1478875146402	i	73
504362	5426417	Michael has his holiday performance.	Michael has his holiday performance. 	257574462	1478875146410	1478875146506	s	83
504362	5426417	Michael has his holiday performance.	Michael has his holiday performance. 	257574467	1478875146522	1478875146586	 	32
504362	5426417	Michael has his holiday performance.	Michael has his holiday performance. 	257574500	1478875146674	1478875146730	h	72
504362	5426417	Michael has his holiday performance.	Michael has his holiday performance. 	257574504	1478875146770	1478875146866	o	79
504362	5426417	Michael has his holiday performance.	Michael has his holiday performance. 	257574506	1478875146962	1478875147029	l	76
504362	5426417	Michael has his holiday performance.	Michael has his holiday performance. 	257574510	1478875147131	1478875147194	i	73
504362	5426417	Michael has his holiday performance.	Michael has his holiday performance. 	257574515	1478875147234	1478875147378	d	68
504362	5426417	Michael has his holiday performance.	Michael has his holiday performance. 	257574573	1478875147330	1478875147482	a	65
504362	5426417	Michael has his holiday performance.	Michael has his holiday performance. 	257574575	1478875147466	1478875147562	t	84
504362	5426417	Michael has his holiday performance.	Michael has his holiday performance. 	257574579	1478875147794	1478875147850	BKSP	8
504362	5426417	Michael has his holiday performance.	Michael has his holiday performance. 	257574583	1478875147866	1478875147930	y	89
504362	5426417	Michael has his holiday performance.	Michael has his holiday performance. 	257574587	1478875147970	1478875148050	 	32
504362	5426417	Michael has his holiday performance.	Michael has his holiday performance. 	257574591	1478875148178	1478875148242	p	80
504362	5426417	Michael has his holiday performance.	Michael has his holiday performance. 	257574595	1478875148282	1478875148418	e	69
504362	5426417	Michael has his holiday performance.	Michael has his holiday performance. 	257574609	1478875148338	1478875148450	r	82
504362	5426417	Michael has his holiday performance.	Michael has his holiday performance. 	257574613	1478875148538	1478875148602	f	70
504362	5426417	Michael has his holiday performance.	Michael has his holiday performance. 	257574617	1478875148658	1478875148714	o	79
504362	5426417	Michael has his holiday performance.	Michael has his holiday performance. 	257574619	1478875148730	1478875148802	r	82
504362	5426417	Michael has his holiday performance.	Michael has his holiday performance. 	257574622	1478875148818	1478875148882	m	77
504362	5426417	Michael has his holiday performance.	Michael has his holiday performance. 	257574626	1478875148938	1478875149010	a	65
504362	5426417	Michael has his holiday performance.	Michael has his holiday performance. 	257574635	1478875149034	1478875149090	n	78
504362	5426417	Michael has his holiday performance.	Michael has his holiday performance. 	257574638	1478875149154	1478875149226	c	67
504362	5426417	Michael has his holiday performance.	Michael has his holiday performance. 	257574640	1478875149210	1478875149314	e	69
504362	5426417	Michael has his holiday performance.	Michael has his holiday performance. 	257574643	1478875149258	1478875149370	.	190
504362	5426417	Michael has his holiday performance.	Michael has his holiday performance. 	257574645	1478875149314	1478875149466	 	32
504362	5426426	The buses will be identified by their cities of origin.	The buses will be identified by their cities of origin. 	257574867	1478875153056	1478875153158	SHIFT	16
504362	5426426	The buses will be identified by their cities of origin.	The buses will be identified by their cities of origin. 	257574870	1478875153119	1478875153199	T	84
504362	5426426	The buses will be identified by their cities of origin.	The buses will be identified by their cities of origin. 	257574874	1478875153231	1478875153279	h	72
504362	5426426	The buses will be identified by their cities of origin.	The buses will be identified by their cities of origin. 	257574877	1478875153327	1478875153366	e	69
504362	5426426	The buses will be identified by their cities of origin.	The buses will be identified by their cities of origin. 	257574880	1478875153423	1478875153463	 	32
504362	5426426	The buses will be identified by their cities of origin.	The buses will be identified by their cities of origin. 	257574883	1478875153534	1478875153654	b	66
504362	5426426	The buses will be identified by their cities of origin.	The buses will be identified by their cities of origin. 	257574898	1478875153623	1478875153719	u	85
504362	5426426	The buses will be identified by their cities of origin.	The buses will be identified by their cities of origin. 	257574902	1478875153719	1478875153839	s	83
504362	5426426	The buses will be identified by their cities of origin.	The buses will be identified by their cities of origin. 	257574908	1478875153783	1478875153983	e	69
504362	5426426	The buses will be identified by their cities of origin.	The buses will be identified by their cities of origin. 	257574912	1478875153959	1478875154063	s	83
504362	5426426	The buses will be identified by their cities of origin.	The buses will be identified by their cities of origin. 	257574916	1478875154095	1478875154215	 	32
504362	5426426	The buses will be identified by their cities of origin.	The buses will be identified by their cities of origin. 	257574919	1478875154343	1478875154407	w	87
504362	5426426	The buses will be identified by their cities of origin.	The buses will be identified by their cities of origin. 	257574944	1478875154409	1478875154487	i	73
504362	5426426	The buses will be identified by their cities of origin.	The buses will be identified by their cities of origin. 	257574947	1478875154599	1478875154639	l	76
504362	5426426	The buses will be identified by their cities of origin.	The buses will be identified by their cities of origin. 	257574951	1478875154711	1478875154791	l	76
504362	5426426	The buses will be identified by their cities of origin.	The buses will be identified by their cities of origin. 	257574954	1478875154775	1478875154831	 	32
504362	5426426	The buses will be identified by their cities of origin.	The buses will be identified by their cities of origin. 	257574956	1478875154919	1478875154958	b	66
504362	5426426	The buses will be identified by their cities of origin.	The buses will be identified by their cities of origin. 	257574978	1478875154961	1478875155031	e	69
504362	5426426	The buses will be identified by their cities of origin.	The buses will be identified by their cities of origin. 	257574980	1478875155063	1478875155143	 	32
504362	5426426	The buses will be identified by their cities of origin.	The buses will be identified by their cities of origin. 	257574985	1478875155231	1478875155295	i	73
504362	5426426	The buses will be identified by their cities of origin.	The buses will be identified by their cities of origin. 	257574989	1478875155503	1478875155583	d	68
504362	5426426	The buses will be identified by their cities of origin.	The buses will be identified by their cities of origin. 	257574994	1478875155719	1478875155774	e	69
504362	5426426	The buses will be identified by their cities of origin.	The buses will be identified by their cities of origin. 	257575013	1478875155798	1478875155855	n	78
504362	5426426	The buses will be identified by their cities of origin.	The buses will be identified by their cities of origin. 	257575016	1478875155918	1478875155990	t	84
504362	5426426	The buses will be identified by their cities of origin.	The buses will be identified by their cities of origin. 	257575022	1478875156086	1478875156166	i	73
504362	5426426	The buses will be identified by their cities of origin.	The buses will be identified by their cities of origin. 	257575026	1478875156254	1478875156359	f	70
504362	5426426	The buses will be identified by their cities of origin.	The buses will be identified by their cities of origin. 	257575031	1478875156415	1478875156478	i	73
504362	5426426	The buses will be identified by their cities of origin.	The buses will be identified by their cities of origin. 	257575052	1478875156519	1478875156606	e	69
504362	5426426	The buses will be identified by their cities of origin.	The buses will be identified by their cities of origin. 	257575055	1478875156686	1478875156759	d	68
504362	5426426	The buses will be identified by their cities of origin.	The buses will be identified by their cities of origin. 	257575057	1478875156790	1478875156846	 	32
504362	5426426	The buses will be identified by their cities of origin.	The buses will be identified by their cities of origin. 	257575060	1478875156902	1478875156974	b	66
504362	5426426	The buses will be identified by their cities of origin.	The buses will be identified by their cities of origin. 	257575062	1478875157007	1478875157070	y	89
504362	5426426	The buses will be identified by their cities of origin.	The buses will be identified by their cities of origin. 	257575082	1478875157102	1478875157142	 	32
504362	5426426	The buses will be identified by their cities of origin.	The buses will be identified by their cities of origin. 	257575084	1478875157287	1478875157326	t	84
504362	5426426	The buses will be identified by their cities of origin.	The buses will be identified by their cities of origin. 	257575087	1478875157342	1478875157406	h	72
504362	5426426	The buses will be identified by their cities of origin.	The buses will be identified by their cities of origin. 	257575089	1478875157478	1478875157550	e	69
504362	5426426	The buses will be identified by their cities of origin.	The buses will be identified by their cities of origin. 	257575092	1478875157590	1478875157646	i	73
504362	5426426	The buses will be identified by their cities of origin.	The buses will be identified by their cities of origin. 	257575112	1478875157703	1478875157766	r	82
504362	5426426	The buses will be identified by their cities of origin.	The buses will be identified by their cities of origin. 	257575114	1478875157783	1478875157862	 	32
504362	5426426	The buses will be identified by their cities of origin.	The buses will be identified by their cities of origin. 	257575117	1478875158030	1478875158118	c	67
504362	5426426	The buses will be identified by their cities of origin.	The buses will be identified by their cities of origin. 	257575120	1478875158119	1478875158198	i	73
504362	5426426	The buses will be identified by their cities of origin.	The buses will be identified by their cities of origin. 	257575124	1478875158286	1478875158343	t	84
504362	5426426	The buses will be identified by their cities of origin.	The buses will be identified by their cities of origin. 	257575134	1478875158383	1478875158462	i	73
504362	5426426	The buses will be identified by their cities of origin.	The buses will be identified by their cities of origin. 	257575136	1478875158502	1478875158598	e	69
504362	5426426	The buses will be identified by their cities of origin.	The buses will be identified by their cities of origin. 	257575138	1478875158558	1478875158678	s	83
504362	5426426	The buses will be identified by their cities of origin.	The buses will be identified by their cities of origin. 	257575140	1478875158638	1478875158718	 	32
504362	5426426	The buses will be identified by their cities of origin.	The buses will be identified by their cities of origin. 	257575141	1478875158806	1478875158862	o	79
504362	5426426	The buses will be identified by their cities of origin.	The buses will be identified by their cities of origin. 	257575158	1478875158903	1478875158958	f	70
504362	5426426	The buses will be identified by their cities of origin.	The buses will be identified by their cities of origin. 	257575160	1478875158959	1478875159062	 	32
504362	5426426	The buses will be identified by their cities of origin.	The buses will be identified by their cities of origin. 	257575166	1478875159158	1478875159222	o	79
504362	5426426	The buses will be identified by their cities of origin.	The buses will be identified by their cities of origin. 	257575169	1478875159262	1478875159358	r	82
504362	5426426	The buses will be identified by their cities of origin.	The buses will be identified by their cities of origin. 	257575176	1478875159398	1478875159470	i	73
504362	5426426	The buses will be identified by their cities of origin.	The buses will be identified by their cities of origin. 	257575199	1478875159590	1478875159678	g	71
504362	5426426	The buses will be identified by their cities of origin.	The buses will be identified by their cities of origin. 	257575201	1478875159718	1478875159838	i	73
504362	5426426	The buses will be identified by their cities of origin.	The buses will be identified by their cities of origin. 	257575204	1478875159798	1478875159894	n	78
504362	5426426	The buses will be identified by their cities of origin.	The buses will be identified by their cities of origin. 	257575207	1478875160070	1478875160166	.	190
504362	5426439	If Motley is in we are out of money.	If Motley is in we are out of money. 	257575447	1478875160110	1478875163990	 	32
504362	5426439	If Motley is in we are out of money.	If Motley is in we are out of money. 	257575437	1478875163431	1478875163702	SHIFT	16
504362	5426439	If Motley is in we are out of money.	If Motley is in we are out of money. 	257575441	1478875163638	1478875163702	I	73
504362	5426439	If Motley is in we are out of money.	If Motley is in we are out of money. 	257575444	1478875163806	1478875163870	f	70
504362	5426439	If Motley is in we are out of money.	If Motley is in we are out of money. 	257575452	1478875164046	1478875164238	SHIFT	16
504362	5426439	If Motley is in we are out of money.	If Motley is in we are out of money. 	257575450	1478875164142	1478875164190	M	77
504362	5426439	If Motley is in we are out of money.	If Motley is in we are out of money. 	257575455	1478875164246	1478875164318	o	79
504362	5426439	If Motley is in we are out of money.	If Motley is in we are out of money. 	257575458	1478875164414	1478875164470	t	84
504362	5426439	If Motley is in we are out of money.	If Motley is in we are out of money. 	257575491	1478875164662	1478875164726	l	76
504362	5426439	If Motley is in we are out of money.	If Motley is in we are out of money. 	257575493	1478875164758	1478875164934	e	69
504362	5426439	If Motley is in we are out of money.	If Motley is in we are out of money. 	257575499	1478875165014	1478875165086	y	89
504362	5426439	If Motley is in we are out of money.	If Motley is in we are out of money. 	257575503	1478875165142	1478875165246	 	32
504362	5426439	If Motley is in we are out of money.	If Motley is in we are out of money. 	257575507	1478875165358	1478875165406	i	73
504362	5426439	If Motley is in we are out of money.	If Motley is in we are out of money. 	257575548	1478875165462	1478875165542	s	83
504362	5426439	If Motley is in we are out of money.	If Motley is in we are out of money. 	257575551	1478875165542	1478875165598	 	32
504362	5426439	If Motley is in we are out of money.	If Motley is in we are out of money. 	257575557	1478875165710	1478875165758	o	73
504362	5426439	If Motley is in we are out of money.	If Motley is in we are out of money. 	257575561	1478875166142	1478875166190	BKSP	8
504362	5426439	If Motley is in we are out of money.	If Motley is in we are out of money. 	257575566	1478875166334	1478875166390	n	78
504362	5426439	If Motley is in we are out of money.	If Motley is in we are out of money. 	257575591	1478875166422	1478875166526	 	32
504362	5426439	If Motley is in we are out of money.	If Motley is in we are out of money. 	257575596	1478875166614	1478875166774	w	87
504362	5426439	If Motley is in we are out of money.	If Motley is in we are out of money. 	257575602	1478875166702	1478875166822	e	69
504362	5426439	If Motley is in we are out of money.	If Motley is in we are out of money. 	257575608	1478875166870	1478875166910	 	32
504362	5426439	If Motley is in we are out of money.	If Motley is in we are out of money. 	257575615	1478875166934	1478875167102	a	65
504362	5426439	If Motley is in we are out of money.	If Motley is in we are out of money. 	257575639	1478875166998	1478875167182	r	82
504362	5426439	If Motley is in we are out of money.	If Motley is in we are out of money. 	257575641	1478875167070	1478875167222	e	69
504362	5426439	If Motley is in we are out of money.	If Motley is in we are out of money. 	257575644	1478875167182	1478875167254	 	32
504362	5426439	If Motley is in we are out of money.	If Motley is in we are out of money. 	257575648	1478875167326	1478875167398	o	79
504362	5426439	If Motley is in we are out of money.	If Motley is in we are out of money. 	257575651	1478875167535	1478875167575	u	85
504362	5426439	If Motley is in we are out of money.	If Motley is in we are out of money. 	257575657	1478875167623	1478875167687	t	84
504362	5426439	If Motley is in we are out of money.	If Motley is in we are out of money. 	257575662	1478875167719	1478875167743	 	32
504362	5426439	If Motley is in we are out of money.	If Motley is in we are out of money. 	257575684	1478875167823	1478875167887	o	79
504362	5426439	If Motley is in we are out of money.	If Motley is in we are out of money. 	257575689	1478875167919	1478875167991	f	70
504362	5426439	If Motley is in we are out of money.	If Motley is in we are out of money. 	257575693	1478875167992	1478875168047	 	32
504362	5426439	If Motley is in we are out of money.	If Motley is in we are out of money. 	257575696	1478875168111	1478875168191	m	77
504362	5426439	If Motley is in we are out of money.	If Motley is in we are out of money. 	257575705	1478875168207	1478875168271	o	79
504362	5426439	If Motley is in we are out of money.	If Motley is in we are out of money. 	257575719	1478875168311	1478875168382	n	78
504362	5426439	If Motley is in we are out of money.	If Motley is in we are out of money. 	257575726	1478875168422	1478875168558	e	69
504362	5426439	If Motley is in we are out of money.	If Motley is in we are out of money. 	257575732	1478875168495	1478875168639	y	89
504362	5426439	If Motley is in we are out of money.	If Motley is in we are out of money. 	257575739	1478875168654	1478875168751	.	190
504362	5426447	Hope you guys are doing fine.	Hope you guys are doing fine. 	257575878	1478875168710	1478875171463	 	32
504362	5426447	Hope you guys are doing fine.	Hope you guys are doing fine. 	257575866	1478875170790	1478875170951	SHIFT	16
504362	5426447	Hope you guys are doing fine.	Hope you guys are doing fine. 	257575864	1478875170879	1478875170935	H	72
504362	5426447	Hope you guys are doing fine.	Hope you guys are doing fine. 	257575870	1478875171032	1478875171095	o	79
504362	5426447	Hope you guys are doing fine.	Hope you guys are doing fine. 	257575872	1478875171199	1478875171263	p	80
504362	5426447	Hope you guys are doing fine.	Hope you guys are doing fine. 	257575875	1478875171295	1478875171359	e	69
504362	5426447	Hope you guys are doing fine.	Hope you guys are doing fine. 	257575881	1478875171567	1478875171631	y	89
504362	5426447	Hope you guys are doing fine.	Hope you guys are doing fine. 	257575886	1478875171671	1478875171735	o	79
504362	5426447	Hope you guys are doing fine.	Hope you guys are doing fine. 	257575888	1478875171735	1478875171799	u	85
504362	5426447	Hope you guys are doing fine.	Hope you guys are doing fine. 	257575890	1478875171871	1478875171942	 	32
504362	5426447	Hope you guys are doing fine.	Hope you guys are doing fine. 	257575893	1478875172167	1478875172231	g	71
504362	5426447	Hope you guys are doing fine.	Hope you guys are doing fine. 	257575897	1478875172231	1478875172303	u	85
504362	5426447	Hope you guys are doing fine.	Hope you guys are doing fine. 	257575913	1478875172359	1478875172454	y	89
504362	5426447	Hope you guys are doing fine.	Hope you guys are doing fine. 	257575918	1478875172438	1478875172527	s	83
504362	5426447	Hope you guys are doing fine.	Hope you guys are doing fine. 	257575922	1478875172591	1478875172655	 	32
504362	5426447	Hope you guys are doing fine.	Hope you guys are doing fine. 	257575926	1478875172655	1478875172831	a	65
504362	5426447	Hope you guys are doing fine.	Hope you guys are doing fine. 	257575937	1478875172735	1478875172887	r	82
504362	5426447	Hope you guys are doing fine.	Hope you guys are doing fine. 	257575938	1478875172832	1478875172926	e	69
504362	5426447	Hope you guys are doing fine.	Hope you guys are doing fine. 	257575939	1478875172927	1478875173022	 	32
504362	5426447	Hope you guys are doing fine.	Hope you guys are doing fine. 	257575940	1478875173078	1478875173166	d	68
504362	5426447	Hope you guys are doing fine.	Hope you guys are doing fine. 	257575941	1478875173151	1478875173214	o	79
504362	5426447	Hope you guys are doing fine.	Hope you guys are doing fine. 	257575942	1478875173311	1478875173438	i	73
504362	5426447	Hope you guys are doing fine.	Hope you guys are doing fine. 	257575949	1478875173383	1478875173471	n	78
504362	5426447	Hope you guys are doing fine.	Hope you guys are doing fine. 	257575951	1478875173471	1478875173534	g	71
504362	5426447	Hope you guys are doing fine.	Hope you guys are doing fine. 	257575955	1478875173566	1478875173639	 	32
504362	5426447	Hope you guys are doing fine.	Hope you guys are doing fine. 	257575958	1478875173695	1478875173790	f	70
504362	5426447	Hope you guys are doing fine.	Hope you guys are doing fine. 	257575961	1478875173734	1478875173855	i	73
504362	5426447	Hope you guys are doing fine.	Hope you guys are doing fine. 	257575973	1478875173799	1478875173895	n	78
504362	5426447	Hope you guys are doing fine.	Hope you guys are doing fine. 	257575977	1478875173943	1478875174006	e	69
504362	5426447	Hope you guys are doing fine.	Hope you guys are doing fine. 	257575980	1478875174039	1478875174126	.	190
504362	5426456	Clinton said Tuesday he would make an announcement by Thursday.	Clinton said Tuesday he would make an announcement by Thursday. 	257576196	1478875174103	1478875178030	 	32
504362	5426456	Clinton said Tuesday he would make an announcement by Thursday.	Clinton said Tuesday he would make an announcement by Thursday. 	257576130	1478875177214	1478875177326	SHIFT	16
504362	5426456	Clinton said Tuesday he would make an announcement by Thursday.	Clinton said Tuesday he would make an announcement by Thursday. 	257576132	1478875177294	1478875177390	C	67
504362	5426456	Clinton said Tuesday he would make an announcement by Thursday.	Clinton said Tuesday he would make an announcement by Thursday. 	257576135	1478875177374	1478875177430	l	76
504362	5426456	Clinton said Tuesday he would make an announcement by Thursday.	Clinton said Tuesday he would make an announcement by Thursday. 	257576137	1478875177542	1478875177622	i	73
504362	5426456	Clinton said Tuesday he would make an announcement by Thursday.	Clinton said Tuesday he would make an announcement by Thursday. 	257576140	1478875177614	1478875177678	n	78
504362	5426456	Clinton said Tuesday he would make an announcement by Thursday.	Clinton said Tuesday he would make an announcement by Thursday. 	257576187	1478875177662	1478875177734	t	84
504362	5426456	Clinton said Tuesday he would make an announcement by Thursday.	Clinton said Tuesday he would make an announcement by Thursday. 	257576189	1478875177790	1478875177870	o	79
504362	5426456	Clinton said Tuesday he would make an announcement by Thursday.	Clinton said Tuesday he would make an announcement by Thursday. 	257576193	1478875177854	1478875177974	n	78
504362	5426456	Clinton said Tuesday he would make an announcement by Thursday.	Clinton said Tuesday he would make an announcement by Thursday. 	257576200	1478875178134	1478875178334	s	83
504362	5426456	Clinton said Tuesday he would make an announcement by Thursday.	Clinton said Tuesday he would make an announcement by Thursday. 	257576203	1478875178335	1478875178454	a	65
504362	5426456	Clinton said Tuesday he would make an announcement by Thursday.	Clinton said Tuesday he would make an announcement by Thursday. 	257576205	1478875178486	1478875178542	i	73
504362	5426456	Clinton said Tuesday he would make an announcement by Thursday.	Clinton said Tuesday he would make an announcement by Thursday. 	257576218	1478875178606	1478875178670	d	68
504362	5426456	Clinton said Tuesday he would make an announcement by Thursday.	Clinton said Tuesday he would make an announcement by Thursday. 	257576221	1478875178702	1478875178790	 	32
504362	5426456	Clinton said Tuesday he would make an announcement by Thursday.	Clinton said Tuesday he would make an announcement by Thursday. 	257576224	1478875178854	1478875179014	SHIFT	16
504362	5426456	Clinton said Tuesday he would make an announcement by Thursday.	Clinton said Tuesday he would make an announcement by Thursday. 	257576229	1478875178974	1478875179055	Y	84
504362	5426456	Clinton said Tuesday he would make an announcement by Thursday.	Clinton said Tuesday he would make an announcement by Thursday. 	257576233	1478875179102	1478875179183	u	85
504362	5426456	Clinton said Tuesday he would make an announcement by Thursday.	Clinton said Tuesday he would make an announcement by Thursday. 	257576276	1478875179185	1478875179333	e	69
504362	5426456	Clinton said Tuesday he would make an announcement by Thursday.	Clinton said Tuesday he would make an announcement by Thursday. 	257576278	1478875179278	1478875179437	s	83
504362	5426456	Clinton said Tuesday he would make an announcement by Thursday.	Clinton said Tuesday he would make an announcement by Thursday. 	257576283	1478875179501	1478875179541	BKSP	8
504362	5426456	Clinton said Tuesday he would make an announcement by Thursday.	Clinton said Tuesday he would make an announcement by Thursday. 	257576285	1478875179606	1478875179670	BKSP	8
504362	5426456	Clinton said Tuesday he would make an announcement by Thursday.	Clinton said Tuesday he would make an announcement by Thursday. 	257576290	1478875179743	1478875179806	BKSP	8
504362	5426456	Clinton said Tuesday he would make an announcement by Thursday.	Clinton said Tuesday he would make an announcement by Thursday. 	257576295	1478875179878	1478875179942	BKSP	8
504362	5426456	Clinton said Tuesday he would make an announcement by Thursday.	Clinton said Tuesday he would make an announcement by Thursday. 	257576298	1478875180078	1478875180126	u	85
504362	5426456	Clinton said Tuesday he would make an announcement by Thursday.	Clinton said Tuesday he would make an announcement by Thursday. 	257576302	1478875180110	1478875180246	e	69
504362	5426456	Clinton said Tuesday he would make an announcement by Thursday.	Clinton said Tuesday he would make an announcement by Thursday. 	257576311	1478875180166	1478875180286	s	83
504362	5426456	Clinton said Tuesday he would make an announcement by Thursday.	Clinton said Tuesday he would make an announcement by Thursday. 	257576312	1478875180358	1478875180486	d	68
504362	5426456	Clinton said Tuesday he would make an announcement by Thursday.	Clinton said Tuesday he would make an announcement by Thursday. 	257576313	1478875180447	1478875180598	a	65
504362	5426456	Clinton said Tuesday he would make an announcement by Thursday.	Clinton said Tuesday he would make an announcement by Thursday. 	257576315	1478875180558	1478875180654	y	89
504362	5426456	Clinton said Tuesday he would make an announcement by Thursday.	Clinton said Tuesday he would make an announcement by Thursday. 	257576319	1478875180670	1478875180734	 	32
504362	5426456	Clinton said Tuesday he would make an announcement by Thursday.	Clinton said Tuesday he would make an announcement by Thursday. 	257576322	1478875180798	1478875180870	h	72
504362	5426456	Clinton said Tuesday he would make an announcement by Thursday.	Clinton said Tuesday he would make an announcement by Thursday. 	257576334	1478875180872	1478875180942	e	69
504362	5426456	Clinton said Tuesday he would make an announcement by Thursday.	Clinton said Tuesday he would make an announcement by Thursday. 	257576335	1478875180966	1478875181038	 	32
504362	5426456	Clinton said Tuesday he would make an announcement by Thursday.	Clinton said Tuesday he would make an announcement by Thursday. 	257576337	1478875181109	1478875181189	w	87
504362	5426456	Clinton said Tuesday he would make an announcement by Thursday.	Clinton said Tuesday he would make an announcement by Thursday. 	257576340	1478875181189	1478875181254	o	79
504362	5426456	Clinton said Tuesday he would make an announcement by Thursday.	Clinton said Tuesday he would make an announcement by Thursday. 	257576344	1478875181350	1478875181389	u	85
504362	5426456	Clinton said Tuesday he would make an announcement by Thursday.	Clinton said Tuesday he would make an announcement by Thursday. 	257576396	1478875181534	1478875181582	l	76
504362	5426456	Clinton said Tuesday he would make an announcement by Thursday.	Clinton said Tuesday he would make an announcement by Thursday. 	257576399	1478875181694	1478875181726	d	32
504362	5426456	Clinton said Tuesday he would make an announcement by Thursday.	Clinton said Tuesday he would make an announcement by Thursday. 	257576401	1478875182182	1478875182222	BKSP	8
504362	5426456	Clinton said Tuesday he would make an announcement by Thursday.	Clinton said Tuesday he would make an announcement by Thursday. 	257576403	1478875182286	1478875182350	BKSP	8
504362	5426456	Clinton said Tuesday he would make an announcement by Thursday.	Clinton said Tuesday he would make an announcement by Thursday. 	257576405	1478875182350	1478875182414	d	68
504362	5426456	Clinton said Tuesday he would make an announcement by Thursday.	Clinton said Tuesday he would make an announcement by Thursday. 	257576409	1478875182430	1478875182486	 	32
504362	5426456	Clinton said Tuesday he would make an announcement by Thursday.	Clinton said Tuesday he would make an announcement by Thursday. 	257576433	1478875182574	1478875182622	m	77
504362	5426456	Clinton said Tuesday he would make an announcement by Thursday.	Clinton said Tuesday he would make an announcement by Thursday. 	257576438	1478875182678	1478875182742	a	65
504362	5426456	Clinton said Tuesday he would make an announcement by Thursday.	Clinton said Tuesday he would make an announcement by Thursday. 	257576443	1478875182743	1478875182782	k	75
504362	5426456	Clinton said Tuesday he would make an announcement by Thursday.	Clinton said Tuesday he would make an announcement by Thursday. 	257576446	1478875182854	1478875182934	e	69
504362	5426456	Clinton said Tuesday he would make an announcement by Thursday.	Clinton said Tuesday he would make an announcement by Thursday. 	257576449	1478875182934	1478875182998	 	32
504362	5426456	Clinton said Tuesday he would make an announcement by Thursday.	Clinton said Tuesday he would make an announcement by Thursday. 	257576451	1478875183000	1478875183094	a	65
504362	5426456	Clinton said Tuesday he would make an announcement by Thursday.	Clinton said Tuesday he would make an announcement by Thursday. 	257576452	1478875183070	1478875183125	n	78
504362	5426456	Clinton said Tuesday he would make an announcement by Thursday.	Clinton said Tuesday he would make an announcement by Thursday. 	257576456	1478875183191	1478875183270	 	32
504362	5426456	Clinton said Tuesday he would make an announcement by Thursday.	Clinton said Tuesday he would make an announcement by Thursday. 	257576460	1478875183358	1478875183462	a	65
504362	5426456	Clinton said Tuesday he would make an announcement by Thursday.	Clinton said Tuesday he would make an announcement by Thursday. 	257576463	1478875183462	1478875183502	n	78
504362	5426456	Clinton said Tuesday he would make an announcement by Thursday.	Clinton said Tuesday he would make an announcement by Thursday. 	257576490	1478875183575	1478875183630	n	78
504362	5426456	Clinton said Tuesday he would make an announcement by Thursday.	Clinton said Tuesday he would make an announcement by Thursday. 	257576492	1478875183726	1478875183790	o	79
504362	5426456	Clinton said Tuesday he would make an announcement by Thursday.	Clinton said Tuesday he would make an announcement by Thursday. 	257576498	1478875183918	1478875183982	u	85
504362	5426456	Clinton said Tuesday he would make an announcement by Thursday.	Clinton said Tuesday he would make an announcement by Thursday. 	257576505	1478875184014	1478875184118	n	78
504362	5426456	Clinton said Tuesday he would make an announcement by Thursday.	Clinton said Tuesday he would make an announcement by Thursday. 	257576512	1478875184214	1478875184310	c	67
504362	5426456	Clinton said Tuesday he would make an announcement by Thursday.	Clinton said Tuesday he would make an announcement by Thursday. 	257576551	1478875184382	1478875184454	e	69
504362	5426456	Clinton said Tuesday he would make an announcement by Thursday.	Clinton said Tuesday he would make an announcement by Thursday. 	257576556	1478875184766	1478875184822	m	77
504362	5426456	Clinton said Tuesday he would make an announcement by Thursday.	Clinton said Tuesday he would make an announcement by Thursday. 	257576560	1478875184902	1478875184950	e	69
504362	5426456	Clinton said Tuesday he would make an announcement by Thursday.	Clinton said Tuesday he would make an announcement by Thursday. 	257576567	1478875184950	1478875185007	n	78
504362	5426456	Clinton said Tuesday he would make an announcement by Thursday.	Clinton said Tuesday he would make an announcement by Thursday. 	257576575	1478875185047	1478875185119	t	84
504362	5426456	Clinton said Tuesday he would make an announcement by Thursday.	Clinton said Tuesday he would make an announcement by Thursday. 	257576628	1478875185143	1478875185223	 	32
504362	5426456	Clinton said Tuesday he would make an announcement by Thursday.	Clinton said Tuesday he would make an announcement by Thursday. 	257576631	1478875185511	1478875185559	b	66
504362	5426456	Clinton said Tuesday he would make an announcement by Thursday.	Clinton said Tuesday he would make an announcement by Thursday. 	257576634	1478875185703	1478875185759	y	89
504362	5426456	Clinton said Tuesday he would make an announcement by Thursday.	Clinton said Tuesday he would make an announcement by Thursday. 	257576635	1478875185775	1478875185855	 	32
504362	5426456	Clinton said Tuesday he would make an announcement by Thursday.	Clinton said Tuesday he would make an announcement by Thursday. 	257576637	1478875186047	1478875186175	SHIFT	16
504362	5426456	Clinton said Tuesday he would make an announcement by Thursday.	Clinton said Tuesday he would make an announcement by Thursday. 	257576651	1478875186135	1478875186247	T	84
504362	5426456	Clinton said Tuesday he would make an announcement by Thursday.	Clinton said Tuesday he would make an announcement by Thursday. 	257576652	1478875186247	1478875186335	h	72
504362	5426456	Clinton said Tuesday he would make an announcement by Thursday.	Clinton said Tuesday he would make an announcement by Thursday. 	257576654	1478875186335	1478875186415	u	85
504362	5426456	Clinton said Tuesday he would make an announcement by Thursday.	Clinton said Tuesday he would make an announcement by Thursday. 	257576657	1478875186431	1478875186543	r	82
504362	5426456	Clinton said Tuesday he would make an announcement by Thursday.	Clinton said Tuesday he would make an announcement by Thursday. 	257576662	1478875186711	1478875186823	d	68
504362	5426456	Clinton said Tuesday he would make an announcement by Thursday.	Clinton said Tuesday he would make an announcement by Thursday. 	257576709	1478875186807	1478875186959	s	83
504362	5426456	Clinton said Tuesday he would make an announcement by Thursday.	Clinton said Tuesday he would make an announcement by Thursday. 	257576712	1478875187039	1478875187095	BKSP	8
504362	5426456	Clinton said Tuesday he would make an announcement by Thursday.	Clinton said Tuesday he would make an announcement by Thursday. 	257576715	1478875187151	1478875187207	BKSP	8
504362	5426456	Clinton said Tuesday he would make an announcement by Thursday.	Clinton said Tuesday he would make an announcement by Thursday. 	257576718	1478875187191	1478875187383	s	83
504362	5426456	Clinton said Tuesday he would make an announcement by Thursday.	Clinton said Tuesday he would make an announcement by Thursday. 	257576721	1478875187319	1478875187478	d	68
504362	5426456	Clinton said Tuesday he would make an announcement by Thursday.	Clinton said Tuesday he would make an announcement by Thursday. 	257576723	1478875187415	1478875187599	a	65
504362	5426456	Clinton said Tuesday he would make an announcement by Thursday.	Clinton said Tuesday he would make an announcement by Thursday. 	257576725	1478875187559	1478875187663	y	89
504362	5426456	Clinton said Tuesday he would make an announcement by Thursday.	Clinton said Tuesday he would make an announcement by Thursday. 	257576727	1478875187679	1478875187799	.	190
504362	5426471	I'll talk to you on Monday.	I'll talk to you on Monday. 	257576921	1478875187735	1478875190934	 	32
504362	5426471	I'll talk to you on Monday.	I'll talk to you on Monday. 	257576904	1478875189847	1478875190007	SHIFT	16
504362	5426471	I'll talk to you on Monday.	I'll talk to you on Monday. 	257576907	1478875189950	1478875190015	I	73
504362	5426471	I'll talk to you on Monday.	I'll talk to you on Monday. 	257576913	1478875190135	1478875190175	'	222
504362	5426471	I'll talk to you on Monday.	I'll talk to you on Monday. 	257576915	1478875190606	1478875190646	l	76
504362	5426471	I'll talk to you on Monday.	I'll talk to you on Monday. 	257576918	1478875190735	1478875190798	l	76
504362	5426471	I'll talk to you on Monday.	I'll talk to you on Monday. 	257576927	1478875190975	1478875191062	t	84
504362	5426471	I'll talk to you on Monday.	I'll talk to you on Monday. 	257576945	1478875191079	1478875191182	a	65
504362	5426471	I'll talk to you on Monday.	I'll talk to you on Monday. 	257576948	1478875191119	1478875191230	l	76
504362	5426471	I'll talk to you on Monday.	I'll talk to you on Monday. 	257576954	1478875191359	1478875191422	k	75
504362	5426471	I'll talk to you on Monday.	I'll talk to you on Monday. 	257576960	1478875191479	1478875191615	 	32
504362	5426471	I'll talk to you on Monday.	I'll talk to you on Monday. 	257576964	1478875191655	1478875191710	t	84
504362	5426471	I'll talk to you on Monday.	I'll talk to you on Monday. 	257576981	1478875191735	1478875191806	o	79
504362	5426471	I'll talk to you on Monday.	I'll talk to you on Monday. 	257576984	1478875191791	1478875191926	 	32
504362	5426471	I'll talk to you on Monday.	I'll talk to you on Monday. 	257576987	1478875192055	1478875192134	y	89
504362	5426471	I'll talk to you on Monday.	I'll talk to you on Monday. 	257576989	1478875192135	1478875192206	o	79
504362	5426471	I'll talk to you on Monday.	I'll talk to you on Monday. 	257576990	1478875192223	1478875192286	u	85
504362	5426471	I'll talk to you on Monday.	I'll talk to you on Monday. 	257577010	1478875192343	1478875192422	 	32
504362	5426471	I'll talk to you on Monday.	I'll talk to you on Monday. 	257577015	1478875192535	1478875192638	o	79
504362	5426471	I'll talk to you on Monday.	I'll talk to you on Monday. 	257577020	1478875192575	1478875192694	n	78
504362	5426471	I'll talk to you on Monday.	I'll talk to you on Monday. 	257577028	1478875192678	1478875192790	 	32
504362	5426471	I'll talk to you on Monday.	I'll talk to you on Monday. 	257577035	1478875192791	1478875192918	SHIFT	16
504362	5426471	I'll talk to you on Monday.	I'll talk to you on Monday. 	257577056	1478875192879	1478875192950	M	77
504362	5426471	I'll talk to you on Monday.	I'll talk to you on Monday. 	257577059	1478875192982	1478875193110	o	79
504362	5426471	I'll talk to you on Monday.	I'll talk to you on Monday. 	257577066	1478875193071	1478875193150	n	78
504362	5426471	I'll talk to you on Monday.	I'll talk to you on Monday. 	257577071	1478875193151	1478875193270	d	68
504362	5426471	I'll talk to you on Monday.	I'll talk to you on Monday. 	257577075	1478875193230	1478875193359	a	65
504362	5426471	I'll talk to you on Monday.	I'll talk to you on Monday. 	257577077	1478875193350	1478875193422	y	89
504362	5426471	I'll talk to you on Monday.	I'll talk to you on Monday. 	257577080	1478875193398	1478875193494	.	190
504362	5426477	We are about to leave Heaven!	We are about to leave Heaven!	257577256	1478875193438	1478875195774	 	32
504362	5426477	We are about to leave Heaven!	We are about to leave Heaven!	257577243	1478875195295	1478875195438	SHIFT	16
504362	5426477	We are about to leave Heaven!	We are about to leave Heaven!	257577247	1478875195406	1478875195494	W	87
504362	5426477	We are about to leave Heaven!	We are about to leave Heaven!	257577251	1478875195582	1478875195654	e	69
504362	5426477	We are about to leave Heaven!	We are about to leave Heaven!	257577261	1478875195775	1478875195942	a	65
504362	5426477	We are about to leave Heaven!	We are about to leave Heaven!	257577301	1478875195830	1478875195958	r	82
504362	5426477	We are about to leave Heaven!	We are about to leave Heaven!	257577304	1478875195902	1478875196038	e	69
504362	5426477	We are about to leave Heaven!	We are about to leave Heaven!	257577308	1478875195974	1478875196078	 	32
504362	5426477	We are about to leave Heaven!	We are about to leave Heaven!	257577314	1478875196198	1478875196318	a	65
504362	5426477	We are about to leave Heaven!	We are about to leave Heaven!	257577318	1478875196262	1478875196366	b	66
504362	5426477	We are about to leave Heaven!	We are about to leave Heaven!	257577320	1478875196502	1478875196614	o	79
504362	5426477	We are about to leave Heaven!	We are about to leave Heaven!	257577326	1478875196894	1478875196950	u	85
504362	5426477	We are about to leave Heaven!	We are about to leave Heaven!	257577332	1478875196974	1478875197046	t	84
504362	5426477	We are about to leave Heaven!	We are about to leave Heaven!	257577336	1478875197086	1478875197142	 	32
504362	5426477	We are about to leave Heaven!	We are about to leave Heaven!	257577339	1478875197166	1478875197238	t	84
504362	5426477	We are about to leave Heaven!	We are about to leave Heaven!	257577342	1478875197239	1478875197310	o	79
504362	5426477	We are about to leave Heaven!	We are about to leave Heaven!	257577345	1478875197311	1478875197414	 	32
504362	5426477	We are about to leave Heaven!	We are about to leave Heaven!	257577355	1478875197478	1478875197558	l	76
504362	5426477	We are about to leave Heaven!	We are about to leave Heaven!	257577357	1478875197519	1478875197662	e	69
504362	5426477	We are about to leave Heaven!	We are about to leave Heaven!	257577362	1478875197598	1478875197759	a	65
504362	5426477	We are about to leave Heaven!	We are about to leave Heaven!	257577370	1478875197726	1478875197846	v	86
504362	5426477	We are about to leave Heaven!	We are about to leave Heaven!	257577404	1478875197814	1478875197918	e	69
504362	5426477	We are about to leave Heaven!	We are about to leave Heaven!	257577409	1478875197950	1478875198014	 	32
504362	5426477	We are about to leave Heaven!	We are about to leave Heaven!	257577415	1478875198015	1478875198135	SHIFT	16
504362	5426477	We are about to leave Heaven!	We are about to leave Heaven!	257577418	1478875198086	1478875198182	H	72
504362	5426477	We are about to leave Heaven!	We are about to leave Heaven!	257577421	1478875198206	1478875198326	e	69
504362	5426477	We are about to leave Heaven!	We are about to leave Heaven!	257577423	1478875198310	1478875198502	a	65
504362	5426477	We are about to leave Heaven!	We are about to leave Heaven!	257577509	1478875198398	1478875198542	v	86
504362	5426477	We are about to leave Heaven!	We are about to leave Heaven!	257577511	1478875198462	1478875198630	e	69
504362	5426477	We are about to leave Heaven!	We are about to leave Heaven!	257577515	1478875198798	1478875198862	n	78
504362	5426477	We are about to leave Heaven!	We are about to leave Heaven!	257577521	1478875199022	1478875199062	.	190
504362	5426477	We are about to leave Heaven!	We are about to leave Heaven!	257577528	1478875199374	1478875199430	BKSP	8
504362	5426477	We are about to leave Heaven!	We are about to leave Heaven!	257577536	1478875199502	1478875199574	1	49
504362	5426477	We are about to leave Heaven!	We are about to leave Heaven!	257577545	1478875199518	1478875199870	SHIFT	16
504362	5426477	We are about to leave Heaven!	We are about to leave Heaven!	257577552	1478875200046	1478875200102	BKSP	8
504362	5426477	We are about to leave Heaven!	We are about to leave Heaven!	257577555	1478875200198	1478875200414	SHIFT	16
504362	5426477	We are about to leave Heaven!	We are about to leave Heaven!	257577559	1478875200294	1478875200415	!	49
504362	5426485	Trip was good I presume?	Trip was good I presume? 	257577709	1478875203367	1478875203455	SHIFT	16
504362	5426485	Trip was good I presume?	Trip was good I presume? 	257577712	1478875203423	1478875203495	T	84
504362	5426485	Trip was good I presume?	Trip was good I presume? 	257577713	1478875203599	1478875203663	r	82
504362	5426485	Trip was good I presume?	Trip was good I presume? 	257577715	1478875203703	1478875203759	i	73
504362	5426485	Trip was good I presume?	Trip was good I presume? 	257577720	1478875203847	1478875203927	p	80
504362	5426485	Trip was good I presume?	Trip was good I presume? 	257577726	1478875203943	1478875204103	 	32
504362	5426485	Trip was good I presume?	Trip was good I presume? 	257577749	1478875204215	1478875204335	w	87
504362	5426485	Trip was good I presume?	Trip was good I presume? 	257577756	1478875204303	1478875204471	a	65
504362	5426485	Trip was good I presume?	Trip was good I presume? 	257577761	1478875204399	1478875204567	s	83
504362	5426485	Trip was good I presume?	Trip was good I presume? 	257577768	1478875204567	1478875204631	 	32
504362	5426485	Trip was good I presume?	Trip was good I presume? 	257577773	1478875204695	1478875204783	g	71
504362	5426485	Trip was good I presume?	Trip was good I presume? 	257577795	1478875204839	1478875204895	o	79
504362	5426485	Trip was good I presume?	Trip was good I presume? 	257577797	1478875204935	1478875204975	o	79
504362	5426485	Trip was good I presume?	Trip was good I presume? 	257577799	1478875205079	1478875205167	d	68
504362	5426485	Trip was good I presume?	Trip was good I presume? 	257577803	1478875205287	1478875205415	 	32
504362	5426485	Trip was good I presume?	Trip was good I presume? 	257577827	1478875205416	1478875205639	SHIFT	16
504362	5426485	Trip was good I presume?	Trip was good I presume? 	257577806	1478875205527	1478875205623	I	73
504362	5426485	Trip was good I presume?	Trip was good I presume? 	257577831	1478875205583	1478875205711	 	32
504362	5426485	Trip was good I presume?	Trip was good I presume? 	257577835	1478875205903	1478875205975	p	80
504362	5426485	Trip was good I presume?	Trip was good I presume? 	257577841	1478875205975	1478875206094	r	82
504362	5426485	Trip was good I presume?	Trip was good I presume? 	257577846	1478875206047	1478875206183	e	69
504362	5426485	Trip was good I presume?	Trip was good I presume? 	257577850	1478875206079	1478875206262	s	83
504362	5426485	Trip was good I presume?	Trip was good I presume? 	257577855	1478875206310	1478875206439	u	85
504362	5426485	Trip was good I presume?	Trip was good I presume? 	257577869	1478875206735	1478875206783	m	77
504362	5426485	Trip was good I presume?	Trip was good I presume? 	257577872	1478875206879	1478875206934	e	69
504362	5426485	Trip was good I presume?	Trip was good I presume? 	257577875	1478875206919	1478875207063	SHIFT	16
504362	5426493	No problem Maria, please contact Rick.	No problem Maria, please contact Rick. 	257578047	1478875207007	1478875210094	 	32
504362	5426493	No problem Maria, please contact Rick.	No problem Maria, please contact Rick. 	257578040	1478875209679	1478875209806	SHIFT	16
504362	5426493	No problem Maria, please contact Rick.	No problem Maria, please contact Rick. 	257578042	1478875209767	1478875209807	N	78
504362	5426493	No problem Maria, please contact Rick.	No problem Maria, please contact Rick. 	257578044	1478875209879	1478875209966	o	79
504362	5426493	No problem Maria, please contact Rick.	No problem Maria, please contact Rick. 	257578049	1478875210183	1478875210246	p	80
504362	5426493	No problem Maria, please contact Rick.	No problem Maria, please contact Rick. 	257578054	1478875210286	1478875210342	r	82
504362	5426493	No problem Maria, please contact Rick.	No problem Maria, please contact Rick. 	257578062	1478875210399	1478875210462	o	79
504362	5426493	No problem Maria, please contact Rick.	No problem Maria, please contact Rick. 	257578093	1478875210559	1478875210630	b	66
504362	5426493	No problem Maria, please contact Rick.	No problem Maria, please contact Rick. 	257578096	1478875210791	1478875210846	l	76
504362	5426493	No problem Maria, please contact Rick.	No problem Maria, please contact Rick. 	257578100	1478875210927	1478875210990	e	69
504362	5426493	No problem Maria, please contact Rick.	No problem Maria, please contact Rick. 	257578104	1478875211006	1478875211070	m	77
504362	5426493	No problem Maria, please contact Rick.	No problem Maria, please contact Rick. 	257578108	1478875211134	1478875211270	 	32
504362	5426493	No problem Maria, please contact Rick.	No problem Maria, please contact Rick. 	257578169	1478875211335	1478875211518	SHIFT	16
504362	5426493	No problem Maria, please contact Rick.	No problem Maria, please contact Rick. 	257578173	1478875211454	1478875211534	M	77
504362	5426493	No problem Maria, please contact Rick.	No problem Maria, please contact Rick. 	257578177	1478875211646	1478875211750	a	65
504362	5426493	No problem Maria, please contact Rick.	No problem Maria, please contact Rick. 	257578180	1478875211694	1478875211822	r	82
504362	5426493	No problem Maria, please contact Rick.	No problem Maria, please contact Rick. 	257578184	1478875211894	1478875211974	i	73
504362	5426493	No problem Maria, please contact Rick.	No problem Maria, please contact Rick. 	257578187	1478875212278	1478875212350	a	65
504362	5426493	No problem Maria, please contact Rick.	No problem Maria, please contact Rick. 	257578200	1478875212383	1478875212462	,	188
504362	5426493	No problem Maria, please contact Rick.	No problem Maria, please contact Rick. 	257578204	1478875212422	1478875212551	 	32
504362	5426493	No problem Maria, please contact Rick.	No problem Maria, please contact Rick. 	257578209	1478875212718	1478875212774	p	80
504362	5426493	No problem Maria, please contact Rick.	No problem Maria, please contact Rick. 	257578214	1478875212838	1478875212950	l	76
504362	5426493	No problem Maria, please contact Rick.	No problem Maria, please contact Rick. 	257578242	1478875212934	1478875213054	e	69
504362	5426493	No problem Maria, please contact Rick.	No problem Maria, please contact Rick. 	257578246	1478875213015	1478875213211	a	65
504362	5426493	No problem Maria, please contact Rick.	No problem Maria, please contact Rick. 	257578249	1478875213091	1478875213275	s	83
504362	5426493	No problem Maria, please contact Rick.	No problem Maria, please contact Rick. 	257578252	1478875213179	1478875213331	e	69
504362	5426493	No problem Maria, please contact Rick.	No problem Maria, please contact Rick. 	257578253	1478875213332	1478875213395	 	32
504362	5426493	No problem Maria, please contact Rick.	No problem Maria, please contact Rick. 	257578255	1478875213515	1478875213619	c	67
504362	5426493	No problem Maria, please contact Rick.	No problem Maria, please contact Rick. 	257578284	1478875213587	1478875213691	o	79
504362	5426493	No problem Maria, please contact Rick.	No problem Maria, please contact Rick. 	257578289	1478875213635	1478875213779	n	78
504362	5426493	No problem Maria, please contact Rick.	No problem Maria, please contact Rick. 	257578295	1478875213780	1478875213843	t	84
504362	5426493	No problem Maria, please contact Rick.	No problem Maria, please contact Rick. 	257578300	1478875213923	1478875214115	a	65
504362	5426493	No problem Maria, please contact Rick.	No problem Maria, please contact Rick. 	257578304	1478875214075	1478875214219	c	67
504362	5426493	No problem Maria, please contact Rick.	No problem Maria, please contact Rick. 	257578307	1478875214355	1478875214403	t	84
504362	5426493	No problem Maria, please contact Rick.	No problem Maria, please contact Rick. 	257578337	1478875214459	1478875214564	 	32
504362	5426493	No problem Maria, please contact Rick.	No problem Maria, please contact Rick. 	257578345	1478875214675	1478875214732	r	82
504362	5426493	No problem Maria, please contact Rick.	No problem Maria, please contact Rick. 	257578350	1478875214971	1478875215027	BKSP	8
504362	5426493	No problem Maria, please contact Rick.	No problem Maria, please contact Rick. 	257578355	1478875215028	1478875215123	SHIFT	16
504362	5426493	No problem Maria, please contact Rick.	No problem Maria, please contact Rick. 	257578365	1478875215083	1478875215163	R	82
504362	5426493	No problem Maria, please contact Rick.	No problem Maria, please contact Rick. 	257578373	1478875215164	1478875215211	i	73
504362	5426493	No problem Maria, please contact Rick.	No problem Maria, please contact Rick. 	257578378	1478875215275	1478875215355	c	67
504362	5426493	No problem Maria, please contact Rick.	No problem Maria, please contact Rick. 	257578383	1478875215395	1478875215467	k	75
504362	5426503	Thanks so much for the message.	Thanks so much for the message. 	257578826	1478875215588	1478875223180	.	190
504362	5426503	Thanks so much for the message.	Thanks so much for the message. 	257578657	1478875215643	1478875219947	 	32
504362	5426503	Thanks so much for the message.	Thanks so much for the message. 	257578611	1478875219275	1478875219387	SHIFT	16
504362	5426503	Thanks so much for the message.	Thanks so much for the message. 	257578612	1478875219355	1478875219427	T	84
504362	5426503	Thanks so much for the message.	Thanks so much for the message. 	257578613	1478875219443	1478875219506	h	72
504362	5426503	Thanks so much for the message.	Thanks so much for the message. 	257578616	1478875219522	1478875219603	a	65
504362	5426503	Thanks so much for the message.	Thanks so much for the message. 	257578619	1478875219619	1478875219683	n	78
504362	5426503	Thanks so much for the message.	Thanks so much for the message. 	257578621	1478875219699	1478875219771	k	75
504362	5426503	Thanks so much for the message.	Thanks so much for the message. 	257578652	1478875219739	1478875219859	s	83
504362	5426503	Thanks so much for the message.	Thanks so much for the message. 	257578662	1478875219972	1478875220068	s	83
504362	5426503	Thanks so much for the message.	Thanks so much for the message. 	257578668	1478875220069	1478875220140	o	79
504362	5426503	Thanks so much for the message.	Thanks so much for the message. 	257578673	1478875220108	1478875220180	 	32
504362	5426503	Thanks so much for the message.	Thanks so much for the message. 	257578678	1478875220252	1478875220332	m	77
504362	5426503	Thanks so much for the message.	Thanks so much for the message. 	257578683	1478875220404	1478875220468	u	85
504362	5426503	Thanks so much for the message.	Thanks so much for the message. 	257578690	1478875220508	1478875220596	c	67
504362	5426503	Thanks so much for the message.	Thanks so much for the message. 	257578692	1478875220564	1478875220636	h	72
504362	5426503	Thanks so much for the message.	Thanks so much for the message. 	257578696	1478875220684	1478875220748	 	32
504362	5426503	Thanks so much for the message.	Thanks so much for the message. 	257578700	1478875220820	1478875220924	f	70
504362	5426503	Thanks so much for the message.	Thanks so much for the message. 	257578705	1478875220924	1478875220988	o	79
504362	5426503	Thanks so much for the message.	Thanks so much for the message. 	257578741	1478875221020	1478875221084	r	82
504362	5426503	Thanks so much for the message.	Thanks so much for the message. 	257578745	1478875221188	1478875221204	 	84
504362	5426503	Thanks so much for the message.	Thanks so much for the message. 	257578749	1478875221412	1478875221492	h	72
504362	5426503	Thanks so much for the message.	Thanks so much for the message. 	257578752	1478875221653	1478875221692	BKSP	8
504362	5426503	Thanks so much for the message.	Thanks so much for the message. 	257578754	1478875221748	1478875221812	BKSP	8
504362	5426503	Thanks so much for the message.	Thanks so much for the message. 	257578756	1478875221876	1478875221932	 	8
504362	5426503	Thanks so much for the message.	Thanks so much for the message. 	257578761	1478875222012	1478875222060	t	84
504362	5426503	Thanks so much for the message.	Thanks so much for the message. 	257578763	1478875222116	1478875222148	h	72
504362	5426503	Thanks so much for the message.	Thanks so much for the message. 	257578764	1478875222172	1478875222244	e	69
504362	5426503	Thanks so much for the message.	Thanks so much for the message. 	257578765	1478875222228	1478875222300	 	32
504362	5426503	Thanks so much for the message.	Thanks so much for the message. 	257578766	1478875222364	1478875222444	m	77
504362	5426503	Thanks so much for the message.	Thanks so much for the message. 	257578773	1478875222446	1478875222596	e	69
504362	5426503	Thanks so much for the message.	Thanks so much for the message. 	257578775	1478875222540	1478875222652	s	83
504362	5426503	Thanks so much for the message.	Thanks so much for the message. 	257578778	1478875222740	1478875222860	s	83
504362	5426503	Thanks so much for the message.	Thanks so much for the message. 	257578781	1478875222804	1478875222980	a	65
504362	5426503	Thanks so much for the message.	Thanks so much for the message. 	257578812	1478875222900	1478875223036	g	71
504362	5426503	Thanks so much for the message.	Thanks so much for the message. 	257578820	1478875223004	1478875223124	e	69
504362	5426503	Thanks so much for the message.	Thanks so much for the message. 	257578832	1478875223124	1478875223244	 	32
504362	5426503	Thanks so much for the message.	Thanks so much for the message. 	257578839	1478875223244	1478875223372		17
504362	5426514	Ruth, here is an estimated November purchase.	Ruth, here is an estimated November purchase. 	257579073	1478875227988	1478875228067	SHIFT	16
504362	5426514	Ruth, here is an estimated November purchase.	Ruth, here is an estimated November purchase. 	257579075	1478875228028	1478875228107	R	82
504362	5426514	Ruth, here is an estimated November purchase.	Ruth, here is an estimated November purchase. 	257579077	1478875228108	1478875228171	u	85
504362	5426514	Ruth, here is an estimated November purchase.	Ruth, here is an estimated November purchase. 	257579079	1478875228227	1478875228283	t	84
504362	5426514	Ruth, here is an estimated November purchase.	Ruth, here is an estimated November purchase. 	257579080	1478875228267	1478875228339	h	72
504362	5426514	Ruth, here is an estimated November purchase.	Ruth, here is an estimated November purchase. 	257579081	1478875228508	1478875228603	,	188
504362	5426514	Ruth, here is an estimated November purchase.	Ruth, here is an estimated November purchase. 	257579100	1478875228547	1478875228667	 	32
504362	5426514	Ruth, here is an estimated November purchase.	Ruth, here is an estimated November purchase. 	257579102	1478875228747	1478875228811	h	72
504362	5426514	Ruth, here is an estimated November purchase.	Ruth, here is an estimated November purchase. 	257579107	1478875228843	1478875228939	e	69
504362	5426514	Ruth, here is an estimated November purchase.	Ruth, here is an estimated November purchase. 	257579111	1478875228899	1478875229067	r	82
504362	5426514	Ruth, here is an estimated November purchase.	Ruth, here is an estimated November purchase. 	257579116	1478875229027	1478875229131	e	69
504362	5426514	Ruth, here is an estimated November purchase.	Ruth, here is an estimated November purchase. 	257579118	1478875229132	1478875229188	 	32
504362	5426514	Ruth, here is an estimated November purchase.	Ruth, here is an estimated November purchase. 	257579134	1478875229267	1478875229331	i	73
504362	5426514	Ruth, here is an estimated November purchase.	Ruth, here is an estimated November purchase. 	257579141	1478875229363	1478875229459	s	83
504362	5426514	Ruth, here is an estimated November purchase.	Ruth, here is an estimated November purchase. 	257579145	1478875229403	1478875229515	 	32
504362	5426514	Ruth, here is an estimated November purchase.	Ruth, here is an estimated November purchase. 	257579150	1478875229555	1478875229651	a	65
504362	5426514	Ruth, here is an estimated November purchase.	Ruth, here is an estimated November purchase. 	257579156	1478875229667	1478875229763	n	78
504362	5426514	Ruth, here is an estimated November purchase.	Ruth, here is an estimated November purchase. 	257579179	1478875229787	1478875229899	 	32
504362	5426514	Ruth, here is an estimated November purchase.	Ruth, here is an estimated November purchase. 	257579180	1478875229963	1478875230115	e	69
504362	5426514	Ruth, here is an estimated November purchase.	Ruth, here is an estimated November purchase. 	257579181	1478875230051	1478875230227	s	83
504362	5426514	Ruth, here is an estimated November purchase.	Ruth, here is an estimated November purchase. 	257579182	1478875230211	1478875230299	t	84
504362	5426514	Ruth, here is an estimated November purchase.	Ruth, here is an estimated November purchase. 	257579183	1478875230347	1478875230443	i	73
504362	5426514	Ruth, here is an estimated November purchase.	Ruth, here is an estimated November purchase. 	257579215	1478875230410	1478875230507	m	77
504362	5426514	Ruth, here is an estimated November purchase.	Ruth, here is an estimated November purchase. 	257579220	1478875230499	1478875230691	a	65
504362	5426514	Ruth, here is an estimated November purchase.	Ruth, here is an estimated November purchase. 	257579223	1478875230635	1478875230779	t	84
504362	5426514	Ruth, here is an estimated November purchase.	Ruth, here is an estimated November purchase. 	257579225	1478875230707	1478875230851	e	69
504362	5426514	Ruth, here is an estimated November purchase.	Ruth, here is an estimated November purchase. 	257579227	1478875230947	1478875231003	d	68
504362	5426514	Ruth, here is an estimated November purchase.	Ruth, here is an estimated November purchase. 	257579229	1478875231059	1478875231131	 	32
504362	5426514	Ruth, here is an estimated November purchase.	Ruth, here is an estimated November purchase. 	257579246	1478875231132	1478875231283	SHIFT	16
504362	5426514	Ruth, here is an estimated November purchase.	Ruth, here is an estimated November purchase. 	257579250	1478875231234	1478875231283	N	78
504362	5426514	Ruth, here is an estimated November purchase.	Ruth, here is an estimated November purchase. 	257579253	1478875231339	1478875231403	o	79
504362	5426514	Ruth, here is an estimated November purchase.	Ruth, here is an estimated November purchase. 	257579257	1478875231435	1478875231531	v	86
504362	5426514	Ruth, here is an estimated November purchase.	Ruth, here is an estimated November purchase. 	257579261	1478875231507	1478875231603	e	69
504362	5426514	Ruth, here is an estimated November purchase.	Ruth, here is an estimated November purchase. 	257579264	1478875231627	1478875231707	m	77
504362	5426514	Ruth, here is an estimated November purchase.	Ruth, here is an estimated November purchase. 	257579298	1478875231811	1478875231875	b	66
504362	5426514	Ruth, here is an estimated November purchase.	Ruth, here is an estimated November purchase. 	257579300	1478875231899	1478875232035	e	69
504362	5426514	Ruth, here is an estimated November purchase.	Ruth, here is an estimated November purchase. 	257579303	1478875231979	1478875232083	r	82
504362	5426514	Ruth, here is an estimated November purchase.	Ruth, here is an estimated November purchase. 	257579308	1478875232067	1478875232170	 	32
504362	5426514	Ruth, here is an estimated November purchase.	Ruth, here is an estimated November purchase. 	257579317	1478875232395	1478875232459	p	80
504362	5426514	Ruth, here is an estimated November purchase.	Ruth, here is an estimated November purchase. 	257579350	1478875232579	1478875232619	u	85
504362	5426514	Ruth, here is an estimated November purchase.	Ruth, here is an estimated November purchase. 	257579351	1478875232651	1478875232723	r	82
504362	5426514	Ruth, here is an estimated November purchase.	Ruth, here is an estimated November purchase. 	257579353	1478875232859	1478875232923	c	67
504362	5426514	Ruth, here is an estimated November purchase.	Ruth, here is an estimated November purchase. 	257579354	1478875232939	1478875233043	h	72
504362	5426514	Ruth, here is an estimated November purchase.	Ruth, here is an estimated November purchase. 	257579355	1478875233075	1478875233251	a	65
504362	5426514	Ruth, here is an estimated November purchase.	Ruth, here is an estimated November purchase. 	257579360	1478875233172	1478875233291	s	83
504362	5426514	Ruth, here is an estimated November purchase.	Ruth, here is an estimated November purchase. 	257579362	1478875233253	1478875233363	e	69
504362	5426514	Ruth, here is an estimated November purchase.	Ruth, here is an estimated November purchase. 	257579369	1478875233388	1478875233491	.	190
504362	5426525	Drop him unless you play in a keeper league.	Drop him unless you play in a keeper league. 	257579686	1478875233427	1478875238204	 	32
504362	5426525	Drop him unless you play in a keeper league.	Drop him unless you play in a keeper league. 	257579624	1478875236795	1478875236923	SHIFT	16
504362	5426525	Drop him unless you play in a keeper league.	Drop him unless you play in a keeper league. 	257579625	1478875236867	1478875237003	D	68
504362	5426525	Drop him unless you play in a keeper league.	Drop him unless you play in a keeper league. 	257579627	1478875237035	1478875237091	o	79
504362	5426525	Drop him unless you play in a keeper league.	Drop him unless you play in a keeper league. 	257579630	1478875237179	1478875237251	p	80
504362	5426525	Drop him unless you play in a keeper league.	Drop him unless you play in a keeper league. 	257579633	1478875237540	1478875237596	BKSP	8
504362	5426525	Drop him unless you play in a keeper league.	Drop him unless you play in a keeper league. 	257579637	1478875237652	1478875237716	BKSP	8
504362	5426525	Drop him unless you play in a keeper league.	Drop him unless you play in a keeper league. 	257579642	1478875237732	1478875237796	r	82
504362	5426525	Drop him unless you play in a keeper league.	Drop him unless you play in a keeper league. 	257579647	1478875237852	1478875237892	o	79
504362	5426525	Drop him unless you play in a keeper league.	Drop him unless you play in a keeper league. 	257579684	1478875237964	1478875238052	p	80
504362	5426525	Drop him unless you play in a keeper league.	Drop him unless you play in a keeper league. 	257579688	1478875238707	1478875238756	h	72
504362	5426525	Drop him unless you play in a keeper league.	Drop him unless you play in a keeper league. 	257579691	1478875238811	1478875238860	i	73
504362	5426525	Drop him unless you play in a keeper league.	Drop him unless you play in a keeper league. 	257579696	1478875238932	1478875239107	m	77
504362	5426525	Drop him unless you play in a keeper league.	Drop him unless you play in a keeper league. 	257579715	1478875239052	1478875239172	 	32
504362	5426525	Drop him unless you play in a keeper league.	Drop him unless you play in a keeper league. 	257579718	1478875239243	1478875239316	u	85
504362	5426525	Drop him unless you play in a keeper league.	Drop him unless you play in a keeper league. 	257579720	1478875239300	1478875239379	n	78
504362	5426525	Drop him unless you play in a keeper league.	Drop him unless you play in a keeper league. 	257579725	1478875239452	1478875239523	l	76
504362	5426525	Drop him unless you play in a keeper league.	Drop him unless you play in a keeper league. 	257579727	1478875239523	1478875239644	e	69
504362	5426525	Drop him unless you play in a keeper league.	Drop him unless you play in a keeper league. 	257579768	1478875239580	1478875239700	s	83
504362	5426525	Drop him unless you play in a keeper league.	Drop him unless you play in a keeper league. 	257579771	1478875239772	1478875239876	s	83
504362	5426525	Drop him unless you play in a keeper league.	Drop him unless you play in a keeper league. 	257579775	1478875239876	1478875239973	 	32
504362	5426525	Drop him unless you play in a keeper league.	Drop him unless you play in a keeper league. 	257579777	1478875240012	1478875240067	y	89
504362	5426525	Drop him unless you play in a keeper league.	Drop him unless you play in a keeper league. 	257579780	1478875240083	1478875240148	o	79
504362	5426525	Drop him unless you play in a keeper league.	Drop him unless you play in a keeper league. 	257579784	1478875240180	1478875240236	u	85
504362	5426525	Drop him unless you play in a keeper league.	Drop him unless you play in a keeper league. 	257579807	1478875240276	1478875240340	 	32
504362	5426525	Drop him unless you play in a keeper league.	Drop him unless you play in a keeper league. 	257579811	1478875240460	1478875240523	p	80
504362	5426525	Drop him unless you play in a keeper league.	Drop him unless you play in a keeper league. 	257579818	1478875240596	1478875240684	l	76
504362	5426525	Drop him unless you play in a keeper league.	Drop him unless you play in a keeper league. 	257579821	1478875240700	1478875240796	a	65
504362	5426525	Drop him unless you play in a keeper league.	Drop him unless you play in a keeper league. 	257579858	1478875240756	1478875240843	y	89
504362	5426525	Drop him unless you play in a keeper league.	Drop him unless you play in a keeper league. 	257579864	1478875240892	1478875240932	 	32
504362	5426525	Drop him unless you play in a keeper league.	Drop him unless you play in a keeper league. 	257579870	1478875241020	1478875241100	i	73
504362	5426525	Drop him unless you play in a keeper league.	Drop him unless you play in a keeper league. 	257579878	1478875241060	1478875241196	n	78
504362	5426525	Drop him unless you play in a keeper league.	Drop him unless you play in a keeper league. 	257579883	1478875241188	1478875241252	 	32
504362	5426525	Drop him unless you play in a keeper league.	Drop him unless you play in a keeper league. 	257579888	1478875241268	1478875241380	a	65
504362	5426525	Drop him unless you play in a keeper league.	Drop him unless you play in a keeper league. 	257579917	1478875241364	1478875241452	 	32
504362	5426525	Drop him unless you play in a keeper league.	Drop him unless you play in a keeper league. 	257579919	1478875241508	1478875241572	k	75
504362	5426525	Drop him unless you play in a keeper league.	Drop him unless you play in a keeper league. 	257579925	1478875241628	1478875241692	e	69
504362	5426525	Drop him unless you play in a keeper league.	Drop him unless you play in a keeper league. 	257579929	1478875241772	1478875241860	e	69
504362	5426525	Drop him unless you play in a keeper league.	Drop him unless you play in a keeper league. 	257579931	1478875241861	1478875241932	p	80
504362	5426525	Drop him unless you play in a keeper league.	Drop him unless you play in a keeper league. 	257579935	1478875242028	1478875242164	e	69
504362	5426525	Drop him unless you play in a keeper league.	Drop him unless you play in a keeper league. 	257579969	1478875242092	1478875242204	r	82
504362	5426525	Drop him unless you play in a keeper league.	Drop him unless you play in a keeper league. 	257579972	1478875242204	1478875242268	 	32
504362	5426525	Drop him unless you play in a keeper league.	Drop him unless you play in a keeper league. 	257579975	1478875242332	1478875242412	l	76
504362	5426525	Drop him unless you play in a keeper league.	Drop him unless you play in a keeper league. 	257579979	1478875242428	1478875242556	e	69
504362	5426525	Drop him unless you play in a keeper league.	Drop him unless you play in a keeper league. 	257579985	1478875242484	1478875242660	a	65
504362	5426525	Drop him unless you play in a keeper league.	Drop him unless you play in a keeper league. 	257579992	1478875242788	1478875242844	g	71
504362	5426525	Drop him unless you play in a keeper league.	Drop him unless you play in a keeper league. 	257580021	1478875243012	1478875243092	u	85
504362	5426525	Drop him unless you play in a keeper league.	Drop him unless you play in a keeper league. 	257580025	1478875243156	1478875243236	e	69
504362	5426525	Drop him unless you play in a keeper league.	Drop him unless you play in a keeper league. 	257580030	1478875243284	1478875243420	.	190
504362	5426525	Drop him unless you play in a keeper league.	Drop him unless you play in a keeper league. 	257580038	1478875243364	1478875243467	 	32
504362	5426538	I sent it to her.	I sent it to her. 	257580187	1478875245612	1478875245755	SHIFT	16
504362	5426538	I sent it to her.	I sent it to her. 	257580192	1478875245675	1478875245756	I	73
504362	5426538	I sent it to her.	I sent it to her. 	257580196	1478875245772	1478875245867	 	32
504362	5426538	I sent it to her.	I sent it to her. 	257580202	1478875245932	1478875246059	s	83
504362	5426538	I sent it to her.	I sent it to her. 	257580207	1478875246003	1478875246115	e	69
504362	5426538	I sent it to her.	I sent it to her. 	257580229	1478875246075	1478875246155	n	78
504362	5426538	I sent it to her.	I sent it to her. 	257580232	1478875246220	1478875246291	t	84
504362	5426538	I sent it to her.	I sent it to her. 	257580235	1478875246300	1478875246372	 	32
504362	5426538	I sent it to her.	I sent it to her. 	257580239	1478875246443	1478875246499	i	73
504362	5426538	I sent it to her.	I sent it to her. 	257580243	1478875246531	1478875246563	 	32
504362	5426538	I sent it to her.	I sent it to her. 	257580247	1478875246587	1478875246603	t	84
504362	5426538	I sent it to her.	I sent it to her. 	257580308	1478875247060	1478875247091	BKSP	8
504362	5426538	I sent it to her.	I sent it to her. 	257580311	1478875247163	1478875247211	BKSP	8
504362	5426538	I sent it to her.	I sent it to her. 	257580315	1478875247195	1478875247259	t	84
504362	5426538	I sent it to her.	I sent it to her. 	257580318	1478875247244	1478875247347	 	32
504362	5426538	I sent it to her.	I sent it to her. 	257580322	1478875247723	1478875247763	t	84
504362	5426538	I sent it to her.	I sent it to her. 	257580325	1478875247819	1478875247899	o	79
504362	5426538	I sent it to her.	I sent it to her. 	257580336	1478875247875	1478875247995	 	32
504362	5426538	I sent it to her.	I sent it to her. 	257580337	1478875248051	1478875248115	h	72
504362	5426538	I sent it to her.	I sent it to her. 	257580339	1478875248132	1478875248267	e	69
504362	5426538	I sent it to her.	I sent it to her. 	257580341	1478875248203	1478875248299	r	82
504362	5426538	I sent it to her.	I sent it to her. 	257580344	1478875248323	1478875248403	.	190
